---
triple:          'arm64-apple-darwin'
binary-path:     './output'
relocations:
  - { offsetInCU: 0x26, offset: 0x26, size: 0x8, addend: 0x0, symName: __ZN10Chip8StateC2ENSt3__15arrayIhLm4096EEEy, symObjAddr: 0x0, symBinAddr: 0x100003904, symSize: 0x12C }
  - { offsetInCU: 0x6E, offset: 0x6E, size: 0x8, addend: 0x0, symName: __ZL5FONTS, symObjAddr: 0x7D0, symBinAddr: 0x100007890, symSize: 0x0 }
  - { offsetInCU: 0x5254, offset: 0x5254, size: 0x8, addend: 0x0, symName: __ZNSt3__16fill_nB7v160006IPjmjEET_S2_T0_RKT1_, symObjAddr: 0x588, symBinAddr: 0x100003E8C, symSize: 0x44 }
  - { offsetInCU: 0x52B7, offset: 0x52B7, size: 0x8, addend: 0x0, symName: __ZNSt3__18__fill_nB7v160006IPjmjEET_S2_T0_RKT1_, symObjAddr: 0x5E0, symBinAddr: 0x100003EE4, symSize: 0x64 }
  - { offsetInCU: 0x531A, offset: 0x531A, size: 0x8, addend: 0x0, symName: __ZNSt3__121__convert_to_integralB7v160006Em, symObjAddr: 0x644, symBinAddr: 0x100003F48, symSize: 0x14 }
  - { offsetInCU: 0x5346, offset: 0x5346, size: 0x8, addend: 0x0, symName: __ZNSt3__16fill_nB7v160006IPtmtEET_S2_T0_RKT1_, symObjAddr: 0x658, symBinAddr: 0x100003F5C, symSize: 0x44 }
  - { offsetInCU: 0x53A9, offset: 0x53A9, size: 0x8, addend: 0x0, symName: __ZNSt3__18__fill_nB7v160006IPtmtEET_S2_T0_RKT1_, symObjAddr: 0x6B0, symBinAddr: 0x100003FB4, symSize: 0x64 }
  - { offsetInCU: 0x540C, offset: 0x540C, size: 0x8, addend: 0x0, symName: __ZNSt3__16fill_nB7v160006IPhmhEET_S2_T0_RKT1_, symObjAddr: 0x714, symBinAddr: 0x100004018, symSize: 0x44 }
  - { offsetInCU: 0x546F, offset: 0x546F, size: 0x8, addend: 0x0, symName: __ZNSt3__18__fill_nB7v160006IPhmhEET_S2_T0_RKT1_, symObjAddr: 0x76C, symBinAddr: 0x100004070, symSize: 0x64 }
  - { offsetInCU: 0x7C44, offset: 0x7C44, size: 0x8, addend: 0x0, symName: __ZN10Chip8StateC2ENSt3__15arrayIhLm4096EEEy, symObjAddr: 0x0, symBinAddr: 0x100003904, symSize: 0x12C }
  - { offsetInCU: 0x7CA7, offset: 0x7CA7, size: 0x8, addend: 0x0, symName: __ZNSt3__15arrayIjLm2048EE4fillB7v160006ERKj, symObjAddr: 0x12C, symBinAddr: 0x100003A30, symSize: 0x34 }
  - { offsetInCU: 0x7CD9, offset: 0x7CD9, size: 0x8, addend: 0x0, symName: __ZNSt3__15arrayItLm16EE4fillB7v160006ERKt, symObjAddr: 0x160, symBinAddr: 0x100003A64, symSize: 0x34 }
  - { offsetInCU: 0x7D0B, offset: 0x7D0B, size: 0x8, addend: 0x0, symName: __ZNSt3__15arrayIhLm16EE4fillB7v160006ERKh, symObjAddr: 0x194, symBinAddr: 0x100003A98, symSize: 0x34 }
  - { offsetInCU: 0x7D3D, offset: 0x7D3D, size: 0x8, addend: 0x0, symName: __ZNSt3__15arrayIhLm4096EEixB7v160006Em, symObjAddr: 0x1C8, symBinAddr: 0x100003ACC, symSize: 0x20 }
  - { offsetInCU: 0x7D6F, offset: 0x7D6F, size: 0x8, addend: 0x0, symName: __ZN10Chip8StateC1ENSt3__15arrayIhLm4096EEEy, symObjAddr: 0x1E8, symBinAddr: 0x100003AEC, symSize: 0x3C }
  - { offsetInCU: 0x7DB6, offset: 0x7DB6, size: 0x8, addend: 0x0, symName: __ZN10Chip8StateC2Ev, symObjAddr: 0x224, symBinAddr: 0x100003B28, symSize: 0x8C }
  - { offsetInCU: 0x7DE0, offset: 0x7DE0, size: 0x8, addend: 0x0, symName: __ZN10Chip8StateC1Ev, symObjAddr: 0x2B0, symBinAddr: 0x100003BB4, symSize: 0x2C }
  - { offsetInCU: 0x7E0A, offset: 0x7E0A, size: 0x8, addend: 0x0, symName: __ZN10Chip8State10set_memoryENSt3__15arrayIhLm4096EEE, symObjAddr: 0x2DC, symBinAddr: 0x100003BE0, symSize: 0x34 }
  - { offsetInCU: 0x7E3F, offset: 0x7E3F, size: 0x8, addend: 0x0, symName: __ZN10Chip8State16set_program_sizeEy, symObjAddr: 0x310, symBinAddr: 0x100003C14, symSize: 0x20 }
  - { offsetInCU: 0x7E73, offset: 0x7E73, size: 0x8, addend: 0x0, symName: __ZN10Chip8State4drawEj, symObjAddr: 0x330, symBinAddr: 0x100003C34, symSize: 0x218 }
  - { offsetInCU: 0x7F41, offset: 0x7F41, size: 0x8, addend: 0x0, symName: __ZNSt3__15arrayIhLm16EEixB7v160006Em, symObjAddr: 0x548, symBinAddr: 0x100003E4C, symSize: 0x20 }
  - { offsetInCU: 0x7F73, offset: 0x7F73, size: 0x8, addend: 0x0, symName: __ZNSt3__15arrayIjLm2048EEixB7v160006Em, symObjAddr: 0x568, symBinAddr: 0x100003E6C, symSize: 0x20 }
  - { offsetInCU: 0x7FA5, offset: 0x7FA5, size: 0x8, addend: 0x0, symName: __ZNSt3__15arrayIjLm2048EE4dataB7v160006Ev, symObjAddr: 0x5CC, symBinAddr: 0x100003ED0, symSize: 0x14 }
  - { offsetInCU: 0x7FC9, offset: 0x7FC9, size: 0x8, addend: 0x0, symName: __ZNSt3__15arrayItLm16EE4dataB7v160006Ev, symObjAddr: 0x69C, symBinAddr: 0x100003FA0, symSize: 0x14 }
  - { offsetInCU: 0x7FED, offset: 0x7FED, size: 0x8, addend: 0x0, symName: __ZNSt3__15arrayIhLm16EE4dataB7v160006Ev, symObjAddr: 0x758, symBinAddr: 0x10000405C, symSize: 0x14 }
  - { offsetInCU: 0x3F, offset: 0x808C, size: 0x8, addend: 0x0, symName: _state, symObjAddr: 0x28068, symBinAddr: 0x10000C000, symSize: 0x0 }
  - { offsetInCU: 0x400A, offset: 0xC057, size: 0x8, addend: 0x0, symName: __ZNSt3__16chronogtB7v160006IxNS_5ratioILl1ELl1000000EEExS3_EEbRKNS0_8durationIT_T0_EERKNS4_IT1_T2_EE, symObjAddr: 0x27A4, symBinAddr: 0x100006714, symSize: 0x30 }
  - { offsetInCU: 0x406E, offset: 0xC0BB, size: 0x8, addend: 0x0, symName: __ZNSt3__16chronoltB7v160006IxNS_5ratioILl1ELl1000000EEEeNS2_ILl1ELl1EEEEEbRKNS0_8durationIT_T0_EERKNS5_IT1_T2_EE, symObjAddr: 0x2810, symBinAddr: 0x100006780, symSize: 0x34 }
  - { offsetInCU: 0x40D2, offset: 0xC11F, size: 0x8, addend: 0x0, symName: __ZNSt3__16chrono13duration_castB7v160006INS0_8durationIxNS_5ratioILl1ELl1000000000EEEEExNS3_ILl1ELl1000000EEEEENS_9enable_ifIXsr13__is_durationIT_EE5valueES8_E4typeERKNS2_IT0_T1_EE, symObjAddr: 0x2844, symBinAddr: 0x1000067B4, symSize: 0x30 }
  - { offsetInCU: 0x4119, offset: 0xC166, size: 0x8, addend: 0x0, symName: __ZNSt3__16chronoltB7v160006IxNS_5ratioILl1ELl1000000000EEExNS2_ILl1ELl1000000EEEEEbRKNS0_8durationIT_T0_EERKNS5_IT1_T2_EE, symObjAddr: 0x2874, symBinAddr: 0x1000067E4, symSize: 0x34 }
  - { offsetInCU: 0x417D, offset: 0xC1CA, size: 0x8, addend: 0x0, symName: __ZNSt3__16chronoltB7v160006IxNS_5ratioILl1ELl1000000EEExS3_EEbRKNS0_8durationIT_T0_EERKNS4_IT1_T2_EE, symObjAddr: 0x2904, symBinAddr: 0x100006874, symSize: 0x34 }
  - { offsetInCU: 0x425E, offset: 0xC2AB, size: 0x8, addend: 0x0, symName: __ZNSt3__16chrono13duration_castB7v160006INS0_8durationIeNS_5ratioILl1ELl1000000EEEEExS4_EENS_9enable_ifIXsr13__is_durationIT_EE5valueES7_E4typeERKNS2_IT0_T1_EE, symObjAddr: 0x2B58, symBinAddr: 0x100006AC8, symSize: 0x30 }
  - { offsetInCU: 0x42F0, offset: 0xC33D, size: 0x8, addend: 0x0, symName: __ZNSt3__16chrono13duration_castB7v160006INS0_8durationIeNS_5ratioILl1ELl1000000EEEEEeNS3_ILl1ELl1EEEEENS_9enable_ifIXsr13__is_durationIT_EE5valueES8_E4typeERKNS2_IT0_T1_EE, symObjAddr: 0x2C78, symBinAddr: 0x100006BE8, symSize: 0x30 }
  - { offsetInCU: 0x43E3, offset: 0xC430, size: 0x8, addend: 0x0, symName: __ZNSt3__124__put_character_sequenceB7v160006IcNS_11char_traitsIcEEEERNS_13basic_ostreamIT_T0_EES7_PKS4_m, symObjAddr: 0x1C08, symBinAddr: 0x100005B78, symSize: 0x1EC }
  - { offsetInCU: 0x5F64, offset: 0xDFB1, size: 0x8, addend: 0x0, symName: __ZNSt3__1lsB7v160006INS_11char_traitsIcEEEERNS_13basic_ostreamIcT_EES6_PKc, symObjAddr: 0x1418, symBinAddr: 0x100005458, symSize: 0x48 }
  - { offsetInCU: 0x5FAD, offset: 0xDFFA, size: 0x8, addend: 0x0, symName: __ZNSt3__14endlB7v160006IcNS_11char_traitsIcEEEERNS_13basic_ostreamIT_T0_EES7_, symObjAddr: 0x148C, symBinAddr: 0x1000054CC, symSize: 0x58 }
  - { offsetInCU: 0x5FF4, offset: 0xE041, size: 0x8, addend: 0x0, symName: __ZNSt3__111this_thread9sleep_forB7v160006IxNS_5ratioILl1ELl1000000EEEEEvRKNS_6chrono8durationIT_T0_EE, symObjAddr: 0x1A18, symBinAddr: 0x100005A58, symSize: 0xBC }
  - { offsetInCU: 0x6080, offset: 0xE0CD, size: 0x8, addend: 0x0, symName: __ZNSt3__116__pad_and_outputB7v160006IcNS_11char_traitsIcEEEENS_19ostreambuf_iteratorIT_T0_EES6_PKS4_S8_S8_RNS_8ios_baseES4_, symObjAddr: 0x1E44, symBinAddr: 0x100005DB4, symSize: 0x240 }
  - { offsetInCU: 0x615B, offset: 0xE1A8, size: 0x8, addend: 0x0, symName: __ZNSt3__119__debug_db_insert_cB7v160006INS_12basic_stringIcNS_11char_traitsIcEENS_9allocatorIcEEEEEEvPT_, symObjAddr: 0x2304, symBinAddr: 0x100006274, symSize: 0x10 }
  - { offsetInCU: 0x618D, offset: 0xE1DA, size: 0x8, addend: 0x0, symName: __ZNSt3__112__to_addressB7v160006IcEEPT_S2_, symObjAddr: 0x23D0, symBinAddr: 0x100006340, symSize: 0x14 }
  - { offsetInCU: 0x61F5, offset: 0xE242, size: 0x8, addend: 0x0, symName: __ZNSt3__19use_facetB7v160006INS_5ctypeIcEEEERKT_RKNS_6localeE, symObjAddr: 0x2688, symBinAddr: 0x1000065F8, symSize: 0x2C }
  - { offsetInCU: 0x66C6, offset: 0xE713, size: 0x8, addend: 0x0, symName: __ZNSt3__118__constexpr_strlenB7v160006EPKc, symObjAddr: 0x2720, symBinAddr: 0x100006690, symSize: 0x24 }
  - { offsetInCU: 0x6A79, offset: 0xEAC6, size: 0x8, addend: 0x0, symName: __ZL6KEYMAP, symObjAddr: 0x31A2, symBinAddr: 0x1000078F0, symSize: 0x0 }
  - { offsetInCU: 0x74D0, offset: 0xF51D, size: 0x8, addend: 0x0, symName: __ZNKSt3__16chrono13__duration_ltINS0_8durationIxNS_5ratioILl1ELl1000000EEEEENS2_IeNS3_ILl1ELl1EEEEEEclB7v160006ERKS5_RKS7_, symObjAddr: 0x2A08, symBinAddr: 0x100006978, symSize: 0x78 }
  - { offsetInCU: 0x754D, offset: 0xF59A, size: 0x8, addend: 0x0, symName: __ZNKSt3__16chrono15__duration_castINS0_8durationIeNS_5ratioILl1ELl1EEEEENS2_IeNS3_ILl1ELl1000000EEEEENS3_ILl1000000ELl1EEELb0ELb1EEclB7v160006ERKS5_, symObjAddr: 0x2CA8, symBinAddr: 0x100006C18, symSize: 0x4C }
  - { offsetInCU: 0x75B7, offset: 0xF604, size: 0x8, addend: 0x0, symName: __ZNKSt3__16chrono15__duration_castINS0_8durationIxNS_5ratioILl1ELl1000000EEEEENS2_IxNS3_ILl1ELl1000000000EEEEENS3_ILl1000ELl1EEELb0ELb1EEclB7v160006ERKS5_, symObjAddr: 0x2D0C, symBinAddr: 0x100006C7C, symSize: 0x48 }
  - { offsetInCU: 0x75FE, offset: 0xF64B, size: 0x8, addend: 0x0, symName: __ZNKSt3__16chrono13__duration_ltINS0_8durationIxNS_5ratioILl1ELl1000000000EEEEENS2_IxNS3_ILl1ELl1000000EEEEEEclB7v160006ERKS5_RKS7_, symObjAddr: 0x2DB8, symBinAddr: 0x100006D28, symSize: 0x6C }
  - { offsetInCU: 0x93EC, offset: 0x11439, size: 0x8, addend: 0x0, symName: __Z6decodet, symObjAddr: 0x0, symBinAddr: 0x1000040D4, symSize: 0x12E8 }
  - { offsetInCU: 0x956A, offset: 0x115B7, size: 0x8, addend: 0x0, symName: __ZNSt3__15arrayItLm16EEixB7v160006Em, symObjAddr: 0x1398, symBinAddr: 0x100005438, symSize: 0x20 }
  - { offsetInCU: 0x959C, offset: 0x115E9, size: 0x8, addend: 0x0, symName: __ZNSt3__113basic_ostreamIcNS_11char_traitsIcEEElsB7v160006EPFRS3_S4_E, symObjAddr: 0x1460, symBinAddr: 0x1000054A0, symSize: 0x2C }
  - { offsetInCU: 0x95CD, offset: 0x1161A, size: 0x8, addend: 0x0, symName: __Z5fetchv, symObjAddr: 0x14E4, symBinAddr: 0x100005524, symSize: 0x94 }
  - { offsetInCU: 0x960E, offset: 0x1165B, size: 0x8, addend: 0x0, symName: _main, symObjAddr: 0x1578, symBinAddr: 0x1000055B8, symSize: 0x46C }
  - { offsetInCU: 0x96F4, offset: 0x11741, size: 0x8, addend: 0x0, symName: __ZNSt3__112basic_stringIcNS_11char_traitsIcEENS_9allocatorIcEEEC1B7v160006IDnEEPKc, symObjAddr: 0x19E4, symBinAddr: 0x100005A24, symSize: 0x34 }
  - { offsetInCU: 0x973C, offset: 0x11789, size: 0x8, addend: 0x0, symName: __ZNSt3__16chrono8durationIxNS_5ratioILl1ELl1000000EEEEC1B7v160006IiEERKT_PNS_9enable_ifIXaasr14is_convertibleIS8_xEE5valueooL_ZNS_17integral_constantIbLb0EE5valueEEntsr23treat_as_floating_pointIS6_EE5valueEvE4typeE, symObjAddr: 0x1AD4, symBinAddr: 0x100005B14, symSize: 0x3C }
  - { offsetInCU: 0x9788, offset: 0x117D5, size: 0x8, addend: 0x0, symName: __ZNSt3__16chrono8durationIxNS_5ratioILl1ELl1000000EEEEC2B7v160006IiEERKT_PNS_9enable_ifIXaasr14is_convertibleIS8_xEE5valueooL_ZNS_17integral_constantIbLb0EE5valueEEntsr23treat_as_floating_pointIS6_EE5valueEvE4typeE, symObjAddr: 0x1B10, symBinAddr: 0x100005B50, symSize: 0x28 }
  - { offsetInCU: 0x97D4, offset: 0x11821, size: 0x8, addend: 0x0, symName: __ZNSt3__111char_traitsIcE6lengthEPKc, symObjAddr: 0x1DF4, symBinAddr: 0x100005D64, symSize: 0x34 }
  - { offsetInCU: 0x9815, offset: 0x11862, size: 0x8, addend: 0x0, symName: __ZNKSt3__113basic_ostreamIcNS_11char_traitsIcEEE6sentrycvbB7v160006Ev, symObjAddr: 0x1E28, symBinAddr: 0x100005D98, symSize: 0x1C }
  - { offsetInCU: 0x9839, offset: 0x11886, size: 0x8, addend: 0x0, symName: __ZNSt3__119ostreambuf_iteratorIcNS_11char_traitsIcEEEC1B7v160006ERNS_13basic_ostreamIcS2_EE, symObjAddr: 0x2084, symBinAddr: 0x100005FF4, symSize: 0x34 }
  - { offsetInCU: 0x9870, offset: 0x118BD, size: 0x8, addend: 0x0, symName: __ZNKSt3__18ios_base5flagsB7v160006Ev, symObjAddr: 0x20B8, symBinAddr: 0x100006028, symSize: 0x18 }
  - { offsetInCU: 0x9897, offset: 0x118E4, size: 0x8, addend: 0x0, symName: __ZNKSt3__19basic_iosIcNS_11char_traitsIcEEE4fillB7v160006Ev, symObjAddr: 0x20D0, symBinAddr: 0x100006040, symSize: 0x64 }
  - { offsetInCU: 0x98BE, offset: 0x1190B, size: 0x8, addend: 0x0, symName: __ZNKSt3__119ostreambuf_iteratorIcNS_11char_traitsIcEEE6failedB7v160006Ev, symObjAddr: 0x2134, symBinAddr: 0x1000060A4, symSize: 0x24 }
  - { offsetInCU: 0x98E2, offset: 0x1192F, size: 0x8, addend: 0x0, symName: __ZNSt3__19basic_iosIcNS_11char_traitsIcEEE8setstateB7v160006Ej, symObjAddr: 0x2158, symBinAddr: 0x1000060C8, symSize: 0x2C }
  - { offsetInCU: 0x9916, offset: 0x11963, size: 0x8, addend: 0x0, symName: __ZNKSt3__18ios_base5widthB7v160006Ev, symObjAddr: 0x2190, symBinAddr: 0x100006100, symSize: 0x18 }
  - { offsetInCU: 0x993D, offset: 0x1198A, size: 0x8, addend: 0x0, symName: __ZNSt3__115basic_streambufIcNS_11char_traitsIcEEE5sputnB7v160006EPKcl, symObjAddr: 0x21A8, symBinAddr: 0x100006118, symSize: 0x3C }
  - { offsetInCU: 0x997D, offset: 0x119CA, size: 0x8, addend: 0x0, symName: __ZNSt3__112basic_stringIcNS_11char_traitsIcEENS_9allocatorIcEEEC1B7v160006Emc, symObjAddr: 0x21E4, symBinAddr: 0x100006154, symSize: 0x3C }
  - { offsetInCU: 0x99C6, offset: 0x11A13, size: 0x8, addend: 0x0, symName: __ZNSt3__112basic_stringIcNS_11char_traitsIcEENS_9allocatorIcEEE4dataB7v160006Ev, symObjAddr: 0x2220, symBinAddr: 0x100006190, symSize: 0x28 }
  - { offsetInCU: 0x99EA, offset: 0x11A37, size: 0x8, addend: 0x0, symName: __ZNSt3__18ios_base5widthB7v160006El, symObjAddr: 0x2248, symBinAddr: 0x1000061B8, symSize: 0x2C }
  - { offsetInCU: 0x9A31, offset: 0x11A7E, size: 0x8, addend: 0x0, symName: __ZNSt3__112basic_stringIcNS_11char_traitsIcEENS_9allocatorIcEEEC2B7v160006Emc, symObjAddr: 0x2274, symBinAddr: 0x1000061E4, symSize: 0x54 }
  - { offsetInCU: 0x9A7F, offset: 0x11ACC, size: 0x8, addend: 0x0, symName: __ZNSt3__117__compressed_pairINS_12basic_stringIcNS_11char_traitsIcEENS_9allocatorIcEEE5__repES5_EC1B7v160006INS_18__default_init_tagESA_EEOT_OT0_, symObjAddr: 0x22C8, symBinAddr: 0x100006238, symSize: 0x3C }
  - { offsetInCU: 0x9AD6, offset: 0x11B23, size: 0x8, addend: 0x0, symName: __ZNSt3__117__compressed_pairINS_12basic_stringIcNS_11char_traitsIcEENS_9allocatorIcEEE5__repES5_EC2B7v160006INS_18__default_init_tagESA_EEOT_OT0_, symObjAddr: 0x2314, symBinAddr: 0x100006284, symSize: 0x3C }
  - { offsetInCU: 0x9B2D, offset: 0x11B7A, size: 0x8, addend: 0x0, symName: __ZNSt3__122__compressed_pair_elemINS_12basic_stringIcNS_11char_traitsIcEENS_9allocatorIcEEE5__repELi0ELb0EEC2B7v160006ENS_18__default_init_tagE, symObjAddr: 0x2350, symBinAddr: 0x1000062C0, symSize: 0x14 }
  - { offsetInCU: 0x9B61, offset: 0x11BAE, size: 0x8, addend: 0x0, symName: __ZNSt3__122__compressed_pair_elemINS_9allocatorIcEELi1ELb1EEC2B7v160006ENS_18__default_init_tagE, symObjAddr: 0x2364, symBinAddr: 0x1000062D4, symSize: 0x2C }
  - { offsetInCU: 0x9B95, offset: 0x11BE2, size: 0x8, addend: 0x0, symName: __ZNSt3__19allocatorIcEC2B7v160006Ev, symObjAddr: 0x2390, symBinAddr: 0x100006300, symSize: 0x2C }
  - { offsetInCU: 0x9BBE, offset: 0x11C0B, size: 0x8, addend: 0x0, symName: __ZNSt3__116__non_trivial_ifILb1ENS_9allocatorIcEEEC2B7v160006Ev, symObjAddr: 0x23BC, symBinAddr: 0x10000632C, symSize: 0x14 }
  - { offsetInCU: 0x9BE7, offset: 0x11C34, size: 0x8, addend: 0x0, symName: __ZNSt3__112basic_stringIcNS_11char_traitsIcEENS_9allocatorIcEEE13__get_pointerB7v160006Ev, symObjAddr: 0x23E4, symBinAddr: 0x100006354, symSize: 0x54 }
  - { offsetInCU: 0x9C0B, offset: 0x11C58, size: 0x8, addend: 0x0, symName: __ZNKSt3__112basic_stringIcNS_11char_traitsIcEENS_9allocatorIcEEE9__is_longB7v160006Ev, symObjAddr: 0x2438, symBinAddr: 0x1000063A8, symSize: 0x38 }
  - { offsetInCU: 0x9C2F, offset: 0x11C7C, size: 0x8, addend: 0x0, symName: __ZNSt3__112basic_stringIcNS_11char_traitsIcEENS_9allocatorIcEEE18__get_long_pointerB7v160006Ev, symObjAddr: 0x2470, symBinAddr: 0x1000063E0, symSize: 0x28 }
  - { offsetInCU: 0x9C53, offset: 0x11CA0, size: 0x8, addend: 0x0, symName: __ZNSt3__112basic_stringIcNS_11char_traitsIcEENS_9allocatorIcEEE19__get_short_pointerB7v160006Ev, symObjAddr: 0x2498, symBinAddr: 0x100006408, symSize: 0x28 }
  - { offsetInCU: 0x9C77, offset: 0x11CC4, size: 0x8, addend: 0x0, symName: __ZNKSt3__117__compressed_pairINS_12basic_stringIcNS_11char_traitsIcEENS_9allocatorIcEEE5__repES5_E5firstB7v160006Ev, symObjAddr: 0x24C0, symBinAddr: 0x100006430, symSize: 0x24 }
  - { offsetInCU: 0x9C9B, offset: 0x11CE8, size: 0x8, addend: 0x0, symName: __ZNKSt3__122__compressed_pair_elemINS_12basic_stringIcNS_11char_traitsIcEENS_9allocatorIcEEE5__repELi0ELb0EE5__getB7v160006Ev, symObjAddr: 0x24E4, symBinAddr: 0x100006454, symSize: 0x14 }
  - { offsetInCU: 0x9CBF, offset: 0x11D0C, size: 0x8, addend: 0x0, symName: __ZNSt3__117__compressed_pairINS_12basic_stringIcNS_11char_traitsIcEENS_9allocatorIcEEE5__repES5_E5firstB7v160006Ev, symObjAddr: 0x24F8, symBinAddr: 0x100006468, symSize: 0x24 }
  - { offsetInCU: 0x9CE3, offset: 0x11D30, size: 0x8, addend: 0x0, symName: __ZNSt3__122__compressed_pair_elemINS_12basic_stringIcNS_11char_traitsIcEENS_9allocatorIcEEE5__repELi0ELb0EE5__getB7v160006Ev, symObjAddr: 0x251C, symBinAddr: 0x10000648C, symSize: 0x14 }
  - { offsetInCU: 0x9D07, offset: 0x11D54, size: 0x8, addend: 0x0, symName: __ZNSt3__114pointer_traitsIPcE10pointer_toB7v160006ERc, symObjAddr: 0x2530, symBinAddr: 0x1000064A0, symSize: 0x14 }
  - { offsetInCU: 0x9D2A, offset: 0x11D77, size: 0x8, addend: 0x0, symName: __ZNSt3__119ostreambuf_iteratorIcNS_11char_traitsIcEEEC2B7v160006ERNS_13basic_ostreamIcS2_EE, symObjAddr: 0x2544, symBinAddr: 0x1000064B4, symSize: 0x54 }
  - { offsetInCU: 0x9D61, offset: 0x11DAE, size: 0x8, addend: 0x0, symName: __ZNKSt3__19basic_iosIcNS_11char_traitsIcEEE5rdbufB7v160006Ev, symObjAddr: 0x2598, symBinAddr: 0x100006508, symSize: 0x24 }
  - { offsetInCU: 0x9D88, offset: 0x11DD5, size: 0x8, addend: 0x0, symName: __ZNKSt3__18ios_base5rdbufB7v160006Ev, symObjAddr: 0x25BC, symBinAddr: 0x10000652C, symSize: 0x18 }
  - { offsetInCU: 0x9DAC, offset: 0x11DF9, size: 0x8, addend: 0x0, symName: __ZNSt3__111char_traitsIcE11eq_int_typeEii, symObjAddr: 0x25D4, symBinAddr: 0x100006544, symSize: 0x28 }
  - { offsetInCU: 0x9DDD, offset: 0x11E2A, size: 0x8, addend: 0x0, symName: __ZNSt3__111char_traitsIcE3eofEv, symObjAddr: 0x25FC, symBinAddr: 0x10000656C, symSize: 0x8 }
  - { offsetInCU: 0x9DF1, offset: 0x11E3E, size: 0x8, addend: 0x0, symName: __ZNKSt3__19basic_iosIcNS_11char_traitsIcEEE5widenB7v160006Ec, symObjAddr: 0x2604, symBinAddr: 0x100006574, symSize: 0x84 }
  - { offsetInCU: 0x9E5F, offset: 0x11EAC, size: 0x8, addend: 0x0, symName: __ZNKSt3__15ctypeIcE5widenB7v160006Ec, symObjAddr: 0x26B4, symBinAddr: 0x100006624, symSize: 0x38 }
  - { offsetInCU: 0x9E93, offset: 0x11EE0, size: 0x8, addend: 0x0, symName: __ZNSt3__18ios_base8setstateB7v160006Ej, symObjAddr: 0x26EC, symBinAddr: 0x10000665C, symSize: 0x34 }
  - { offsetInCU: 0x9ECA, offset: 0x11F17, size: 0x8, addend: 0x0, symName: __ZNSt3__112basic_stringIcNS_11char_traitsIcEENS_9allocatorIcEEEC2B7v160006IDnEEPKc, symObjAddr: 0x2744, symBinAddr: 0x1000066B4, symSize: 0x60 }
  - { offsetInCU: 0x9F08, offset: 0x11F55, size: 0x8, addend: 0x0, symName: __ZNSt3__16chrono8durationIxNS_5ratioILl1ELl1000000EEEE4zeroB7v160006Ev, symObjAddr: 0x27D4, symBinAddr: 0x100006744, symSize: 0x3C }
  - { offsetInCU: 0x9F1C, offset: 0x11F69, size: 0x8, addend: 0x0, symName: __ZNSt3__16chrono8durationIxNS_5ratioILl1ELl1000000000EEEEppB7v160006Ev, symObjAddr: 0x28A8, symBinAddr: 0x100006818, symSize: 0x20 }
  - { offsetInCU: 0x9F40, offset: 0x11F8D, size: 0x8, addend: 0x0, symName: __ZNSt3__16chrono8durationIxNS_5ratioILl1ELl1000000000EEEE3maxB7v160006Ev, symObjAddr: 0x28C8, symBinAddr: 0x100006838, symSize: 0x3C }
  - { offsetInCU: 0x9F5E, offset: 0x11FAB, size: 0x8, addend: 0x0, symName: __ZNKSt3__16chrono13__duration_ltINS0_8durationIxNS_5ratioILl1ELl1000000EEEEES5_EclB7v160006ERKS5_S8_, symObjAddr: 0x2938, symBinAddr: 0x1000068A8, symSize: 0x4C }
  - { offsetInCU: 0x9FA2, offset: 0x11FEF, size: 0x8, addend: 0x0, symName: __ZNKSt3__16chrono8durationIxNS_5ratioILl1ELl1000000EEEE5countB7v160006Ev, symObjAddr: 0x2984, symBinAddr: 0x1000068F4, symSize: 0x18 }
  - { offsetInCU: 0x9FC6, offset: 0x12013, size: 0x8, addend: 0x0, symName: __ZNSt3__16chrono15duration_valuesIxE4zeroB7v160006Ev, symObjAddr: 0x299C, symBinAddr: 0x10000690C, symSize: 0x8 }
  - { offsetInCU: 0x9FE4, offset: 0x12031, size: 0x8, addend: 0x0, symName: __ZNSt3__16chrono8durationIxNS_5ratioILl1ELl1000000EEEEC1B7v160006IxEERKT_PNS_9enable_ifIXaasr14is_convertibleIS8_xEE5valueooL_ZNS_17integral_constantIbLb0EE5valueEEntsr23treat_as_floating_pointIS6_EE5valueEvE4typeE, symObjAddr: 0x29A4, symBinAddr: 0x100006914, symSize: 0x3C }
  - { offsetInCU: 0xA030, offset: 0x1207D, size: 0x8, addend: 0x0, symName: __ZNSt3__16chrono8durationIxNS_5ratioILl1ELl1000000EEEEC2B7v160006IxEERKT_PNS_9enable_ifIXaasr14is_convertibleIS8_xEE5valueooL_ZNS_17integral_constantIbLb0EE5valueEEntsr23treat_as_floating_pointIS6_EE5valueEvE4typeE, symObjAddr: 0x29E0, symBinAddr: 0x100006950, symSize: 0x28 }
  - { offsetInCU: 0xA07C, offset: 0x120C9, size: 0x8, addend: 0x0, symName: __ZNSt3__16chrono8durationIeNS_5ratioILl1ELl1000000EEEEC1B7v160006IxS3_EERKNS1_IT_T0_EEPNS_9enable_ifIXaasr13__no_overflowIS7_S3_EE5valueooL_ZNS_17integral_constantIbLb1EE5valueEEaaeqsr13__no_overflowIS7_S3_E4typeE3denLi1Entsr23treat_as_floating_pointIS6_EE5valueEvE4typeE, symObjAddr: 0x2A80, symBinAddr: 0x1000069F0, symSize: 0x3C }
  - { offsetInCU: 0xA0D3, offset: 0x12120, size: 0x8, addend: 0x0, symName: __ZNKSt3__16chrono8durationIeNS_5ratioILl1ELl1000000EEEE5countB7v160006Ev, symObjAddr: 0x2ABC, symBinAddr: 0x100006A2C, symSize: 0x18 }
  - { offsetInCU: 0xA0F7, offset: 0x12144, size: 0x8, addend: 0x0, symName: __ZNSt3__16chrono8durationIeNS_5ratioILl1ELl1000000EEEEC1B7v160006IeNS2_ILl1ELl1EEEEERKNS1_IT_T0_EEPNS_9enable_ifIXaasr13__no_overflowIS8_S3_EE5valueooL_ZNS_17integral_constantIbLb1EE5valueEEaaeqsr13__no_overflowIS8_S3_E4typeE3denLi1Entsr23treat_as_floating_pointIS7_EE5valueEvE4typeE, symObjAddr: 0x2AD4, symBinAddr: 0x100006A44, symSize: 0x3C }
  - { offsetInCU: 0xA14E, offset: 0x1219B, size: 0x8, addend: 0x0, symName: __ZNSt3__16chrono8durationIeNS_5ratioILl1ELl1000000EEEEC2B7v160006IxS3_EERKNS1_IT_T0_EEPNS_9enable_ifIXaasr13__no_overflowIS7_S3_EE5valueooL_ZNS_17integral_constantIbLb1EE5valueEEaaeqsr13__no_overflowIS7_S3_E4typeE3denLi1Entsr23treat_as_floating_pointIS6_EE5valueEvE4typeE, symObjAddr: 0x2B10, symBinAddr: 0x100006A80, symSize: 0x48 }
  - { offsetInCU: 0xA1AF, offset: 0x121FC, size: 0x8, addend: 0x0, symName: __ZNKSt3__16chrono15__duration_castINS0_8durationIxNS_5ratioILl1ELl1000000EEEEENS2_IeS4_EENS3_ILl1ELl1EEELb1ELb1EEclB7v160006ERKS5_, symObjAddr: 0x2B88, symBinAddr: 0x100006AF8, symSize: 0x44 }
  - { offsetInCU: 0xA1EB, offset: 0x12238, size: 0x8, addend: 0x0, symName: __ZNSt3__16chrono8durationIeNS_5ratioILl1ELl1000000EEEEC1B7v160006IeEERKT_PNS_9enable_ifIXaasr14is_convertibleIS8_eEE5valueooL_ZNS_17integral_constantIbLb1EE5valueEEntsr23treat_as_floating_pointIS6_EE5valueEvE4typeE, symObjAddr: 0x2BCC, symBinAddr: 0x100006B3C, symSize: 0x3C }
  - { offsetInCU: 0xA237, offset: 0x12284, size: 0x8, addend: 0x0, symName: __ZNSt3__16chrono8durationIeNS_5ratioILl1ELl1000000EEEEC2B7v160006IeEERKT_PNS_9enable_ifIXaasr14is_convertibleIS8_eEE5valueooL_ZNS_17integral_constantIbLb1EE5valueEEntsr23treat_as_floating_pointIS6_EE5valueEvE4typeE, symObjAddr: 0x2C08, symBinAddr: 0x100006B78, symSize: 0x28 }
  - { offsetInCU: 0xA283, offset: 0x122D0, size: 0x8, addend: 0x0, symName: __ZNSt3__16chrono8durationIeNS_5ratioILl1ELl1000000EEEEC2B7v160006IeNS2_ILl1ELl1EEEEERKNS1_IT_T0_EEPNS_9enable_ifIXaasr13__no_overflowIS8_S3_EE5valueooL_ZNS_17integral_constantIbLb1EE5valueEEaaeqsr13__no_overflowIS8_S3_E4typeE3denLi1Entsr23treat_as_floating_pointIS7_EE5valueEvE4typeE, symObjAddr: 0x2C30, symBinAddr: 0x100006BA0, symSize: 0x48 }
  - { offsetInCU: 0xA2DA, offset: 0x12327, size: 0x8, addend: 0x0, symName: __ZNKSt3__16chrono8durationIeNS_5ratioILl1ELl1EEEE5countB7v160006Ev, symObjAddr: 0x2CF4, symBinAddr: 0x100006C64, symSize: 0x18 }
  - { offsetInCU: 0xA2FE, offset: 0x1234B, size: 0x8, addend: 0x0, symName: __ZNSt3__16chrono8durationIxNS_5ratioILl1ELl1000000000EEEEC1B7v160006IxEERKT_PNS_9enable_ifIXaasr14is_convertibleIS8_xEE5valueooL_ZNS_17integral_constantIbLb0EE5valueEEntsr23treat_as_floating_pointIS6_EE5valueEvE4typeE, symObjAddr: 0x2D54, symBinAddr: 0x100006CC4, symSize: 0x3C }
  - { offsetInCU: 0xA34A, offset: 0x12397, size: 0x8, addend: 0x0, symName: __ZNSt3__16chrono8durationIxNS_5ratioILl1ELl1000000000EEEEC2B7v160006IxEERKT_PNS_9enable_ifIXaasr14is_convertibleIS8_xEE5valueooL_ZNS_17integral_constantIbLb0EE5valueEEntsr23treat_as_floating_pointIS6_EE5valueEvE4typeE, symObjAddr: 0x2D90, symBinAddr: 0x100006D00, symSize: 0x28 }
  - { offsetInCU: 0xA396, offset: 0x123E3, size: 0x8, addend: 0x0, symName: __ZNKSt3__16chrono8durationIxNS_5ratioILl1ELl1000000000EEEE5countB7v160006Ev, symObjAddr: 0x2E24, symBinAddr: 0x100006D94, symSize: 0x18 }
  - { offsetInCU: 0xA3BA, offset: 0x12407, size: 0x8, addend: 0x0, symName: __ZNSt3__16chrono8durationIxNS_5ratioILl1ELl1000000000EEEEC1B7v160006IxNS2_ILl1ELl1000000EEEEERKNS1_IT_T0_EEPNS_9enable_ifIXaasr13__no_overflowIS8_S3_EE5valueooL_ZNS_17integral_constantIbLb0EE5valueEEaaeqsr13__no_overflowIS8_S3_E4typeE3denLi1Entsr23treat_as_floating_pointIS7_EE5valueEvE4typeE, symObjAddr: 0x2E3C, symBinAddr: 0x100006DAC, symSize: 0x3C }
  - { offsetInCU: 0xA411, offset: 0x1245E, size: 0x8, addend: 0x0, symName: __ZNSt3__16chrono8durationIxNS_5ratioILl1ELl1000000000EEEEC2B7v160006IxNS2_ILl1ELl1000000EEEEERKNS1_IT_T0_EEPNS_9enable_ifIXaasr13__no_overflowIS8_S3_EE5valueooL_ZNS_17integral_constantIbLb0EE5valueEEaaeqsr13__no_overflowIS8_S3_E4typeE3denLi1Entsr23treat_as_floating_pointIS7_EE5valueEvE4typeE, symObjAddr: 0x2E78, symBinAddr: 0x100006DE8, symSize: 0x50 }
  - { offsetInCU: 0xA468, offset: 0x124B5, size: 0x8, addend: 0x0, symName: __ZNSt3__16chrono15duration_valuesIxE3maxB7v160006Ev, symObjAddr: 0x2EC8, symBinAddr: 0x100006E38, symSize: 0x14 }
  - { offsetInCU: 0xA47C, offset: 0x124C9, size: 0x8, addend: 0x0, symName: __ZNSt3__114numeric_limitsIxE3maxB7v160006Ev, symObjAddr: 0x2EDC, symBinAddr: 0x100006E4C, symSize: 0x14 }
  - { offsetInCU: 0xA490, offset: 0x124DD, size: 0x8, addend: 0x0, symName: __ZNSt3__123__libcpp_numeric_limitsIxLb1EE3maxB7v160006Ev, symObjAddr: 0x2EF0, symBinAddr: 0x100006E60, symSize: 0x8 }
  - { offsetInCU: 0x40EB, offset: 0x175F5, size: 0x8, addend: 0x0, symName: __ZNSt3__112__to_addressB7v160006IKcEEPT_S3_, symObjAddr: 0x570, symBinAddr: 0x100007310, symSize: 0x14 }
  - { offsetInCU: 0x6203, offset: 0x1970D, size: 0x8, addend: 0x0, symName: __ZN7DisplayC2ENSt3__112basic_stringIcNS0_11char_traitsIcEENS0_9allocatorIcEEEE, symObjAddr: 0x0, symBinAddr: 0x100006E98, symSize: 0x1F0 }
  - { offsetInCU: 0x6282, offset: 0x1978C, size: 0x8, addend: 0x0, symName: __ZNKSt3__112basic_stringIcNS_11char_traitsIcEENS_9allocatorIcEEE5c_strB7v160006Ev, symObjAddr: 0x1F0, symBinAddr: 0x100007088, symSize: 0x24 }
  - { offsetInCU: 0x62A6, offset: 0x197B0, size: 0x8, addend: 0x0, symName: __ZN7DisplayC1ENSt3__112basic_stringIcNS0_11char_traitsIcEENS0_9allocatorIcEEEE, symObjAddr: 0x2E0, symBinAddr: 0x1000070AC, symSize: 0x34 }
  - { offsetInCU: 0x62DF, offset: 0x197E9, size: 0x8, addend: 0x0, symName: __ZN7DisplayD2Ev, symObjAddr: 0x314, symBinAddr: 0x1000070E0, symSize: 0xE8 }
  - { offsetInCU: 0x6309, offset: 0x19813, size: 0x8, addend: 0x0, symName: __ZN7DisplayD1Ev, symObjAddr: 0x408, symBinAddr: 0x1000071C8, symSize: 0x2C }
  - { offsetInCU: 0x6333, offset: 0x1983D, size: 0x8, addend: 0x0, symName: __ZN7Display6renderENSt3__15arrayIjLm2048EEE, symObjAddr: 0x434, symBinAddr: 0x1000071F4, symSize: 0xF4 }
  - { offsetInCU: 0x63B0, offset: 0x198BA, size: 0x8, addend: 0x0, symName: __ZNKSt3__112basic_stringIcNS_11char_traitsIcEENS_9allocatorIcEEE4dataB7v160006Ev, symObjAddr: 0x548, symBinAddr: 0x1000072E8, symSize: 0x28 }
  - { offsetInCU: 0x63D4, offset: 0x198DE, size: 0x8, addend: 0x0, symName: __ZNKSt3__112basic_stringIcNS_11char_traitsIcEENS_9allocatorIcEEE13__get_pointerB7v160006Ev, symObjAddr: 0x584, symBinAddr: 0x100007324, symSize: 0x54 }
  - { offsetInCU: 0x63F8, offset: 0x19902, size: 0x8, addend: 0x0, symName: __ZNKSt3__112basic_stringIcNS_11char_traitsIcEENS_9allocatorIcEEE18__get_long_pointerB7v160006Ev, symObjAddr: 0x610, symBinAddr: 0x100007378, symSize: 0x28 }
  - { offsetInCU: 0x641C, offset: 0x19926, size: 0x8, addend: 0x0, symName: __ZNKSt3__112basic_stringIcNS_11char_traitsIcEENS_9allocatorIcEEE19__get_short_pointerB7v160006Ev, symObjAddr: 0x638, symBinAddr: 0x1000073A0, symSize: 0x28 }
  - { offsetInCU: 0x6440, offset: 0x1994A, size: 0x8, addend: 0x0, symName: __ZNSt3__114pointer_traitsIPKcE10pointer_toB7v160006ERS1_, symObjAddr: 0x698, symBinAddr: 0x1000073C8, symSize: 0x14 }
  - { offsetInCU: 0x693B, offset: 0x2031D, size: 0x8, addend: 0x0, symName: __Z8load_romiPPc, symObjAddr: 0x0, symBinAddr: 0x1000073DC, symSize: 0x27C }
...
