---
triple:          'arm64-apple-darwin'
binary-path:     './output.exe'
relocations:
  - { offsetInCU: 0x3F, offset: 0x3F, size: 0x8, addend: 0x0, symName: __ZL5FONTS, symObjAddr: 0x23B0, symBinAddr: 0x10000B828, symSize: 0x0 }
  - { offsetInCU: 0x3ED9, offset: 0x3ED9, size: 0x8, addend: 0x0, symName: __ZNSt3__17advanceB7v160006IPhmmvEEvRT_T0_, symObjAddr: 0x73C, symBinAddr: 0x1000046B4, symSize: 0x50 }
  - { offsetInCU: 0x684E, offset: 0x684E, size: 0x8, addend: 0x0, symName: __ZNSt3__18distanceB7v160006IPhEENS_15iterator_traitsIT_E15difference_typeES3_S3_, symObjAddr: 0x6B8, symBinAddr: 0x100004630, symSize: 0x2C }
  - { offsetInCU: 0x6891, offset: 0x6891, size: 0x8, addend: 0x0, symName: __ZNSt3__14copyB7v160006IPhS1_EET0_T_S3_S2_, symObjAddr: 0x78C, symBinAddr: 0x100004704, symSize: 0x40 }
  - { offsetInCU: 0x68EB, offset: 0x68EB, size: 0x8, addend: 0x0, symName: __ZNSt3__125__debug_db_invalidate_allB7v160006INS_6vectorIhNS_9allocatorIhEEEEEEvPT_, symObjAddr: 0xAA4, symBinAddr: 0x100004A1C, symSize: 0x10 }
  - { offsetInCU: 0x691C, offset: 0x691C, size: 0x8, addend: 0x0, symName: __ZNSt3__110__distanceB7v160006IPhEENS_15iterator_traitsIT_E15difference_typeES3_S3_NS_26random_access_iterator_tagE, symObjAddr: 0xAB4, symBinAddr: 0x100004A2C, symSize: 0x20 }
  - { offsetInCU: 0x6969, offset: 0x6969, size: 0x8, addend: 0x0, symName: __ZNSt3__121__convert_to_integralB7v160006Em, symObjAddr: 0xB34, symBinAddr: 0x100004AAC, symSize: 0x14 }
  - { offsetInCU: 0x6995, offset: 0x6995, size: 0x8, addend: 0x0, symName: __ZNSt3__19__advanceB7v160006IPhEEvRT_NS_15iterator_traitsIS2_E15difference_typeENS_26random_access_iterator_tagE, symObjAddr: 0xB48, symBinAddr: 0x100004AC0, symSize: 0x28 }
  - { offsetInCU: 0x69DE, offset: 0x69DE, size: 0x8, addend: 0x0, symName: __ZNSt3__16__copyB7v160006INS_17_ClassicAlgPolicyEPhS2_S2_EENS_4pairIT0_T2_EES4_T1_S5_, symObjAddr: 0xB70, symBinAddr: 0x100004AE8, symSize: 0x44 }
  - { offsetInCU: 0x6A4A, offset: 0x6A4A, size: 0x8, addend: 0x0, symName: __ZNSt3__123__dispatch_copy_or_moveB7v160006INS_17_ClassicAlgPolicyENS_11__copy_loopIS1_EENS_14__copy_trivialEPhS5_S5_EENS_4pairIT2_T4_EES7_T3_S8_, symObjAddr: 0xBB4, symBinAddr: 0x100004B2C, symSize: 0x44 }
  - { offsetInCU: 0x6AC8, offset: 0x6AC8, size: 0x8, addend: 0x0, symName: __ZNSt3__121__unwrap_and_dispatchB7v160006INS_10__overloadINS_11__copy_loopINS_17_ClassicAlgPolicyEEENS_14__copy_trivialEEEPhS7_S7_Li0EEENS_4pairIT0_T2_EES9_T1_SA_, symObjAddr: 0xBF8, symBinAddr: 0x100004B70, symSize: 0xB4 }
  - { offsetInCU: 0x6B56, offset: 0x6B56, size: 0x8, addend: 0x0, symName: __ZNSt3__114__unwrap_rangeB7v160006IPhS1_EENS_4pairIT0_S3_EET_S5_, symObjAddr: 0xCAC, symBinAddr: 0x100004C24, symSize: 0x60 }
  - { offsetInCU: 0x6CEB, offset: 0x6CEB, size: 0x8, addend: 0x0, symName: __ZNSt3__113__unwrap_iterB7v160006IPhNS_18__unwrap_iter_implIS1_Lb1EEELi0EEEDTclsrT0_8__unwrapclsr3stdE7declvalIT_EEEES5_, symObjAddr: 0xD54, symBinAddr: 0x100004CCC, symSize: 0x24 }
  - { offsetInCU: 0x6D2F, offset: 0x6D2F, size: 0x8, addend: 0x0, symName: __ZNSt3__19make_pairB7v160006IPhS1_EENS_4pairINS_18__unwrap_ref_decayIT_E4typeENS3_IT0_E4typeEEEOS4_OS7_, symObjAddr: 0xD78, symBinAddr: 0x100004CF0, symSize: 0x38 }
  - { offsetInCU: 0x6D7E, offset: 0x6D7E, size: 0x8, addend: 0x0, symName: __ZNSt3__114__rewrap_rangeB7v160006IPhS1_EET_S2_T0_, symObjAddr: 0xDB0, symBinAddr: 0x100004D28, symSize: 0x2C }
  - { offsetInCU: 0x6DCA, offset: 0x6DCA, size: 0x8, addend: 0x0, symName: __ZNSt3__113__rewrap_iterB7v160006IPhS1_NS_18__unwrap_iter_implIS1_Lb1EEEEET_S4_T0_, symObjAddr: 0xDDC, symBinAddr: 0x100004D54, symSize: 0x3C }
  - { offsetInCU: 0x6E1F, offset: 0x6E1F, size: 0x8, addend: 0x0, symName: __ZNSt3__119__copy_trivial_implB7v160006IhhEENS_4pairIPT_PT0_EES3_S3_S5_, symObjAddr: 0xE18, symBinAddr: 0x100004D90, symSize: 0x7C }
  - { offsetInCU: 0x6E87, offset: 0x6E87, size: 0x8, addend: 0x0, symName: __ZNSt3__19make_pairB7v160006IRPhS1_EENS_4pairINS_18__unwrap_ref_decayIT_E4typeENS4_IT0_E4typeEEEOS5_OS8_, symObjAddr: 0xE94, symBinAddr: 0x100004E0C, symSize: 0x38 }
  - { offsetInCU: 0x6F29, offset: 0x6F29, size: 0x8, addend: 0x0, symName: __ZNSt3__112__to_addressB7v160006IhEEPT_S2_, symObjAddr: 0xF60, symBinAddr: 0x100004ED8, symSize: 0x14 }
  - { offsetInCU: 0x6F5E, offset: 0x6F5E, size: 0x8, addend: 0x0, symName: __ZNSt3__130__uninitialized_allocator_copyB7v160006INS_9allocatorIhEEPhS3_S3_EET2_RT_T0_T1_S4_, symObjAddr: 0x1074, symBinAddr: 0x100004FEC, symSize: 0xF4 }
  - { offsetInCU: 0x6FFC, offset: 0x6FFC, size: 0x8, addend: 0x0, symName: __ZNSt3__122__make_exception_guardB7v160006INS_29_AllocatorDestroyRangeReverseINS_9allocatorIhEEPhEEEENS_28__exception_guard_exceptionsIT_EES7_, symObjAddr: 0x1200, symBinAddr: 0x100005178, symSize: 0x4C }
  - { offsetInCU: 0x7032, offset: 0x7032, size: 0x8, addend: 0x0, symName: __ZNSt3__119__allocator_destroyB7v160006INS_9allocatorIhEENS_16reverse_iteratorIPhEES5_EEvRT_T0_T1_, symObjAddr: 0x1488, symBinAddr: 0x100005400, symSize: 0x70 }
  - { offsetInCU: 0x7095, offset: 0x7095, size: 0x8, addend: 0x0, symName: __ZNSt3__1neB7v160006IPhS1_EEbRKNS_16reverse_iteratorIT_EERKNS2_IT0_EE, symObjAddr: 0x152C, symBinAddr: 0x1000054A4, symSize: 0x48 }
  - { offsetInCU: 0x70E1, offset: 0x70E1, size: 0x8, addend: 0x0, symName: __ZNSt3__112__to_addressB7v160006INS_16reverse_iteratorIPhEEvEENS_5decayIDTclsr19__to_address_helperIT_EE6__callclsr3stdE7declvalIRKS5_EEEEE4typeES7_, symObjAddr: 0x15A0, symBinAddr: 0x100005518, symSize: 0x24 }
  - { offsetInCU: 0x7140, offset: 0x7140, size: 0x8, addend: 0x0, symName: __ZNSt3__119__libcpp_deallocateB7v160006EPvmm, symObjAddr: 0x19C8, symBinAddr: 0x100005940, symSize: 0x60 }
  - { offsetInCU: 0x71A5, offset: 0x71A5, size: 0x8, addend: 0x0, symName: __ZNSt3__124__is_overaligned_for_newB7v160006Em, symObjAddr: 0x1A28, symBinAddr: 0x1000059A0, symSize: 0x20 }
  - { offsetInCU: 0x71D3, offset: 0x71D3, size: 0x8, addend: 0x0, symName: __ZNSt3__127__do_deallocate_handle_sizeB7v160006IJSt11align_val_tEEEvPvmDpT_, symObjAddr: 0x1A48, symBinAddr: 0x1000059C0, symSize: 0x30 }
  - { offsetInCU: 0x7226, offset: 0x7226, size: 0x8, addend: 0x0, symName: __ZNSt3__127__do_deallocate_handle_sizeB7v160006IJEEEvPvmDpT_, symObjAddr: 0x1A78, symBinAddr: 0x1000059F0, symSize: 0x28 }
  - { offsetInCU: 0x7264, offset: 0x7264, size: 0x8, addend: 0x0, symName: __ZNSt3__124__libcpp_operator_deleteB7v160006IJPvSt11align_val_tEEEvDpT_, symObjAddr: 0x1AA0, symBinAddr: 0x100005A18, symSize: 0x2C }
  - { offsetInCU: 0x72AD, offset: 0x72AD, size: 0x8, addend: 0x0, symName: __ZNSt3__124__libcpp_operator_deleteB7v160006IJPvEEEvDpT_, symObjAddr: 0x1ACC, symBinAddr: 0x100005A44, symSize: 0x24 }
  - { offsetInCU: 0x72E2, offset: 0x72E2, size: 0x8, addend: 0x0, symName: __ZNSt3__119__allocate_at_leastB7v160006INS_9allocatorIhEEEENS_19__allocation_resultINS_16allocator_traitsIT_E7pointerEEERS5_m, symObjAddr: 0x1BA4, symBinAddr: 0x100005B1C, symSize: 0x40 }
  - { offsetInCU: 0x7325, offset: 0x7325, size: 0x8, addend: 0x0, symName: __ZNSt3__13minB7v160006ImEERKT_S3_S3_, symObjAddr: 0x1C90, symBinAddr: 0x100005C08, symSize: 0x2C }
  - { offsetInCU: 0x7552, offset: 0x7552, size: 0x8, addend: 0x0, symName: __ZNSt3__13minB7v160006ImNS_6__lessImmEEEERKT_S5_S5_T0_, symObjAddr: 0x1D1C, symBinAddr: 0x100005C94, symSize: 0x54 }
  - { offsetInCU: 0x75E7, offset: 0x75E7, size: 0x8, addend: 0x0, symName: __ZNSt3__120__throw_length_errorB7v160006EPKc, symObjAddr: 0x1DF8, symBinAddr: 0x100005D70, symSize: 0x64 }
  - { offsetInCU: 0x760F, offset: 0x760F, size: 0x8, addend: 0x0, symName: __ZNSt3__117__libcpp_allocateB7v160006Emm, symObjAddr: 0x1F68, symBinAddr: 0x100005EE0, symSize: 0x60 }
  - { offsetInCU: 0x7669, offset: 0x7669, size: 0x8, addend: 0x0, symName: __ZNSt3__121__libcpp_operator_newB7v160006IJmSt11align_val_tEEEPvDpT_, symObjAddr: 0x1FC8, symBinAddr: 0x100005F40, symSize: 0x2C }
  - { offsetInCU: 0x76B6, offset: 0x76B6, size: 0x8, addend: 0x0, symName: __ZNSt3__121__libcpp_operator_newB7v160006IJmEEEPvDpT_, symObjAddr: 0x1FF4, symBinAddr: 0x100005F6C, symSize: 0x24 }
  - { offsetInCU: 0x76EF, offset: 0x76EF, size: 0x8, addend: 0x0, symName: __ZNSt3__13maxB7v160006ImEERKT_S3_S3_, symObjAddr: 0x2018, symBinAddr: 0x100005F90, symSize: 0x2C }
  - { offsetInCU: 0x7732, offset: 0x7732, size: 0x8, addend: 0x0, symName: __ZNSt3__13maxB7v160006ImNS_6__lessImmEEEERKT_S5_S5_T0_, symObjAddr: 0x2044, symBinAddr: 0x100005FBC, symSize: 0x54 }
  - { offsetInCU: 0x778C, offset: 0x778C, size: 0x8, addend: 0x0, symName: __ZNSt3__16fill_nB7v160006IPjmjEET_S2_T0_RKT1_, symObjAddr: 0x2098, symBinAddr: 0x100006010, symSize: 0x44 }
  - { offsetInCU: 0x77EF, offset: 0x77EF, size: 0x8, addend: 0x0, symName: __ZNSt3__18__fill_nB7v160006IPjmjEET_S2_T0_RKT1_, symObjAddr: 0x20F0, symBinAddr: 0x100006068, symSize: 0x64 }
  - { offsetInCU: 0x7852, offset: 0x7852, size: 0x8, addend: 0x0, symName: __ZNSt3__16fill_nB7v160006IPtmtEET_S2_T0_RKT1_, symObjAddr: 0x2154, symBinAddr: 0x1000060CC, symSize: 0x44 }
  - { offsetInCU: 0x78B5, offset: 0x78B5, size: 0x8, addend: 0x0, symName: __ZNSt3__18__fill_nB7v160006IPtmtEET_S2_T0_RKT1_, symObjAddr: 0x21AC, symBinAddr: 0x100006124, symSize: 0x64 }
  - { offsetInCU: 0x7918, offset: 0x7918, size: 0x8, addend: 0x0, symName: __ZNSt3__16fill_nB7v160006IPhmhEET_S2_T0_RKT1_, symObjAddr: 0x2210, symBinAddr: 0x100006188, symSize: 0x44 }
  - { offsetInCU: 0x797B, offset: 0x797B, size: 0x8, addend: 0x0, symName: __ZNSt3__18__fill_nB7v160006IPhmhEET_S2_T0_RKT1_, symObjAddr: 0x2268, symBinAddr: 0x1000061E0, symSize: 0x64 }
  - { offsetInCU: 0x7CF8, offset: 0x7CF8, size: 0x8, addend: 0x0, symName: __ZSt28__throw_bad_array_new_lengthB7v160006v, symObjAddr: 0x1F34, symBinAddr: 0x100005EAC, symSize: 0x34 }
  - { offsetInCU: 0xAD40, offset: 0xAD40, size: 0x8, addend: 0x0, symName: __ZN10Chip8StateC2ENSt3__15arrayIhLm4096EEEy, symObjAddr: 0x0, symBinAddr: 0x100003F78, symSize: 0x1F4 }
  - { offsetInCU: 0xADA8, offset: 0xADA8, size: 0x8, addend: 0x0, symName: __ZNSt3__15arrayIjLm2048EE4fillB7v160006ERKj, symObjAddr: 0x1F4, symBinAddr: 0x10000416C, symSize: 0x34 }
  - { offsetInCU: 0xADDC, offset: 0xADDC, size: 0x8, addend: 0x0, symName: __ZNSt3__15arrayItLm16EE4fillB7v160006ERKt, symObjAddr: 0x228, symBinAddr: 0x1000041A0, symSize: 0x34 }
  - { offsetInCU: 0xAE10, offset: 0xAE10, size: 0x8, addend: 0x0, symName: __ZNSt3__15arrayIhLm16EE4fillB7v160006ERKh, symObjAddr: 0x25C, symBinAddr: 0x1000041D4, symSize: 0x34 }
  - { offsetInCU: 0xAE44, offset: 0xAE44, size: 0x8, addend: 0x0, symName: __ZNSt3__15arrayIhLm4096EEixB7v160006Em, symObjAddr: 0x290, symBinAddr: 0x100004208, symSize: 0x20 }
  - { offsetInCU: 0xAE87, offset: 0xAE87, size: 0x8, addend: 0x0, symName: __ZN5InputaSERKS_, symObjAddr: 0x2B0, symBinAddr: 0x100004228, symSize: 0x5C }
  - { offsetInCU: 0xAEB8, offset: 0xAEB8, size: 0x8, addend: 0x0, symName: __ZN10Chip8StateC1ENSt3__15arrayIhLm4096EEEy, symObjAddr: 0x30C, symBinAddr: 0x100004284, symSize: 0x3C }
  - { offsetInCU: 0xAF01, offset: 0xAF01, size: 0x8, addend: 0x0, symName: __ZN10Chip8StateC2Ev, symObjAddr: 0x348, symBinAddr: 0x1000042C0, symSize: 0xCC }
  - { offsetInCU: 0xAF2D, offset: 0xAF2D, size: 0x8, addend: 0x0, symName: __ZN10Chip8StateC1Ev, symObjAddr: 0x414, symBinAddr: 0x10000438C, symSize: 0x2C }
  - { offsetInCU: 0xAF59, offset: 0xAF59, size: 0x8, addend: 0x0, symName: __ZN10Chip8State10set_memoryENSt3__15arrayIhLm4096EEE, symObjAddr: 0x440, symBinAddr: 0x1000043B8, symSize: 0x34 }
  - { offsetInCU: 0xAF90, offset: 0xAF90, size: 0x8, addend: 0x0, symName: __ZN10Chip8State16set_program_sizeEy, symObjAddr: 0x474, symBinAddr: 0x1000043EC, symSize: 0x20 }
  - { offsetInCU: 0xAFC6, offset: 0xAFC6, size: 0x8, addend: 0x0, symName: __ZNSt3__16vectorIhNS_9allocatorIhEEEaSB7v160006ERKS3_, symObjAddr: 0x494, symBinAddr: 0x10000440C, symSize: 0x68 }
  - { offsetInCU: 0xAFFD, offset: 0xAFFD, size: 0x8, addend: 0x0, symName: __ZNSt3__16vectorIhNS_9allocatorIhEEE19__copy_assign_allocB7v160006ERKS3_, symObjAddr: 0x4FC, symBinAddr: 0x100004474, symSize: 0x2C }
  - { offsetInCU: 0xB032, offset: 0xB032, size: 0x8, addend: 0x0, symName: __ZNSt3__16vectorIhNS_9allocatorIhEEE6assignIPhLi0EEEvT_S6_, symObjAddr: 0x528, symBinAddr: 0x1000044A0, symSize: 0x17C }
  - { offsetInCU: 0xB0D1, offset: 0xB0D1, size: 0x8, addend: 0x0, symName: __ZNSt3__16vectorIhNS_9allocatorIhEEE19__copy_assign_allocB7v160006ERKS3_NS_17integral_constantIbLb0EEE, symObjAddr: 0x6A4, symBinAddr: 0x10000461C, symSize: 0x14 }
  - { offsetInCU: 0xB10F, offset: 0xB10F, size: 0x8, addend: 0x0, symName: __ZNKSt3__16vectorIhNS_9allocatorIhEEE8capacityB7v160006Ev, symObjAddr: 0x6E4, symBinAddr: 0x10000465C, symSize: 0x38 }
  - { offsetInCU: 0xB135, offset: 0xB135, size: 0x8, addend: 0x0, symName: __ZNKSt3__16vectorIhNS_9allocatorIhEEE4sizeB7v160006Ev, symObjAddr: 0x71C, symBinAddr: 0x100004694, symSize: 0x20 }
  - { offsetInCU: 0xB15B, offset: 0xB15B, size: 0x8, addend: 0x0, symName: __ZNSt3__16vectorIhNS_9allocatorIhEEE18__construct_at_endIPhLi0EEEvT_S6_m, symObjAddr: 0x7CC, symBinAddr: 0x100004744, symSize: 0x8C }
  - { offsetInCU: 0xB1CE, offset: 0xB1CE, size: 0x8, addend: 0x0, symName: __ZNSt3__16vectorIhNS_9allocatorIhEEE17__destruct_at_endB7v160006EPh, symObjAddr: 0x858, symBinAddr: 0x1000047D0, symSize: 0x60 }
  - { offsetInCU: 0xB212, offset: 0xB212, size: 0x8, addend: 0x0, symName: __ZNSt3__16vectorIhNS_9allocatorIhEEE13__vdeallocateEv, symObjAddr: 0x8B8, symBinAddr: 0x100004830, symSize: 0x8C }
  - { offsetInCU: 0xB23A, offset: 0xB23A, size: 0x8, addend: 0x0, symName: __ZNSt3__16vectorIhNS_9allocatorIhEEE11__vallocateB7v160006Em, symObjAddr: 0x944, symBinAddr: 0x1000048BC, symSize: 0xAC }
  - { offsetInCU: 0xB27E, offset: 0xB27E, size: 0x8, addend: 0x0, symName: __ZNKSt3__16vectorIhNS_9allocatorIhEEE11__recommendB7v160006Em, symObjAddr: 0x9F0, symBinAddr: 0x100004968, symSize: 0xB4 }
  - { offsetInCU: 0xB2D3, offset: 0xB2D3, size: 0x8, addend: 0x0, symName: __ZNKSt3__16vectorIhNS_9allocatorIhEEE9__end_capB7v160006Ev, symObjAddr: 0xAD4, symBinAddr: 0x100004A4C, symSize: 0x28 }
  - { offsetInCU: 0xB2F9, offset: 0xB2F9, size: 0x8, addend: 0x0, symName: __ZNKSt3__117__compressed_pairIPhNS_9allocatorIhEEE5firstB7v160006Ev, symObjAddr: 0xAFC, symBinAddr: 0x100004A74, symSize: 0x24 }
  - { offsetInCU: 0xB31F, offset: 0xB31F, size: 0x8, addend: 0x0, symName: __ZNKSt3__122__compressed_pair_elemIPhLi0ELb0EE5__getB7v160006Ev, symObjAddr: 0xB20, symBinAddr: 0x100004A98, symSize: 0x14 }
  - { offsetInCU: 0xB368, offset: 0xB368, size: 0x8, addend: 0x0, symName: __ZNKSt3__114__copy_trivialclB7v160006IhhLi0EEENS_4pairIPT_PT0_EES4_S4_S6_, symObjAddr: 0xD0C, symBinAddr: 0x100004C84, symSize: 0x48 }
  - { offsetInCU: 0xB3D5, offset: 0xB3D5, size: 0x8, addend: 0x0, symName: __ZNSt3__14pairIPhS1_EC1B7v160006IRS1_S1_LPv0EEEOT_OT0_, symObjAddr: 0xECC, symBinAddr: 0x100004E44, symSize: 0x3C }
  - { offsetInCU: 0xB433, offset: 0xB433, size: 0x8, addend: 0x0, symName: __ZNSt3__14pairIPhS1_EC2B7v160006IRS1_S1_LPv0EEEOT_OT0_, symObjAddr: 0xF08, symBinAddr: 0x100004E80, symSize: 0x34 }
  - { offsetInCU: 0xB491, offset: 0xB491, size: 0x8, addend: 0x0, symName: __ZNSt3__118__unwrap_iter_implIPhLb1EE8__unwrapB7v160006ES1_, symObjAddr: 0xF3C, symBinAddr: 0x100004EB4, symSize: 0x24 }
  - { offsetInCU: 0xB4B4, offset: 0xB4B4, size: 0x8, addend: 0x0, symName: __ZNSt3__14pairIPhS1_EC1B7v160006IS1_S1_LPv0EEEOT_OT0_, symObjAddr: 0xF74, symBinAddr: 0x100004EEC, symSize: 0x3C }
  - { offsetInCU: 0xB512, offset: 0xB512, size: 0x8, addend: 0x0, symName: __ZNSt3__14pairIPhS1_EC2B7v160006IS1_S1_LPv0EEEOT_OT0_, symObjAddr: 0xFB0, symBinAddr: 0x100004F28, symSize: 0x34 }
  - { offsetInCU: 0xB570, offset: 0xB570, size: 0x8, addend: 0x0, symName: __ZNSt3__118__unwrap_iter_implIPhLb1EE8__rewrapB7v160006ES1_S1_, symObjAddr: 0xFE4, symBinAddr: 0x100004F5C, symSize: 0x48 }
  - { offsetInCU: 0xB5BA, offset: 0xB5BA, size: 0x8, addend: 0x0, symName: __ZNSt3__16vectorIhNS_9allocatorIhEEE21_ConstructTransactionC1B7v160006ERS3_m, symObjAddr: 0x1038, symBinAddr: 0x100004FB0, symSize: 0x3C }
  - { offsetInCU: 0xB602, offset: 0xB602, size: 0x8, addend: 0x0, symName: __ZNSt3__16vectorIhNS_9allocatorIhEEE7__allocB7v160006Ev, symObjAddr: 0x1168, symBinAddr: 0x1000050E0, symSize: 0x28 }
  - { offsetInCU: 0xB628, offset: 0xB628, size: 0x8, addend: 0x0, symName: __ZNSt3__16vectorIhNS_9allocatorIhEEE21_ConstructTransactionD1B7v160006Ev, symObjAddr: 0x1190, symBinAddr: 0x100005108, symSize: 0x2C }
  - { offsetInCU: 0xB652, offset: 0xB652, size: 0x8, addend: 0x0, symName: __ZNSt3__16vectorIhNS_9allocatorIhEEE21_ConstructTransactionC2B7v160006ERS3_m, symObjAddr: 0x11BC, symBinAddr: 0x100005134, symSize: 0x44 }
  - { offsetInCU: 0xB69A, offset: 0xB69A, size: 0x8, addend: 0x0, symName: __ZNSt3__129_AllocatorDestroyRangeReverseINS_9allocatorIhEEPhEC1B7v160006ERS2_RS3_S6_, symObjAddr: 0x124C, symBinAddr: 0x1000051C4, symSize: 0x44 }
  - { offsetInCU: 0xB6F1, offset: 0xB6F1, size: 0x8, addend: 0x0, symName: __ZNSt3__116allocator_traitsINS_9allocatorIhEEE9constructB7v160006IhJRhEvEEvRS2_PT_DpOT0_, symObjAddr: 0x1290, symBinAddr: 0x100005208, symSize: 0x34 }
  - { offsetInCU: 0xB748, offset: 0xB748, size: 0x8, addend: 0x0, symName: __ZNSt3__128__exception_guard_exceptionsINS_29_AllocatorDestroyRangeReverseINS_9allocatorIhEEPhEEE10__completeB7v160006Ev, symObjAddr: 0x12C4, symBinAddr: 0x10000523C, symSize: 0x1C }
  - { offsetInCU: 0xB76E, offset: 0xB76E, size: 0x8, addend: 0x0, symName: __ZNSt3__128__exception_guard_exceptionsINS_29_AllocatorDestroyRangeReverseINS_9allocatorIhEEPhEEED1B7v160006Ev, symObjAddr: 0x12E0, symBinAddr: 0x100005258, symSize: 0x2C }
  - { offsetInCU: 0xB798, offset: 0xB798, size: 0x8, addend: 0x0, symName: __ZNSt3__128__exception_guard_exceptionsINS_29_AllocatorDestroyRangeReverseINS_9allocatorIhEEPhEEEC1B7v160006ES5_, symObjAddr: 0x130C, symBinAddr: 0x100005284, symSize: 0x34 }
  - { offsetInCU: 0xB7D1, offset: 0xB7D1, size: 0x8, addend: 0x0, symName: __ZNSt3__128__exception_guard_exceptionsINS_29_AllocatorDestroyRangeReverseINS_9allocatorIhEEPhEEEC2B7v160006ES5_, symObjAddr: 0x1340, symBinAddr: 0x1000052B8, symSize: 0x30 }
  - { offsetInCU: 0xB80A, offset: 0xB80A, size: 0x8, addend: 0x0, symName: __ZNSt3__129_AllocatorDestroyRangeReverseINS_9allocatorIhEEPhEC2B7v160006ERS2_RS3_S6_, symObjAddr: 0x1370, symBinAddr: 0x1000052E8, symSize: 0x38 }
  - { offsetInCU: 0xB861, offset: 0xB861, size: 0x8, addend: 0x0, symName: __ZNSt3__19allocatorIhE9constructB7v160006IhJRhEEEvPT_DpOT0_, symObjAddr: 0x13A8, symBinAddr: 0x100005320, symSize: 0x28 }
  - { offsetInCU: 0xB8B7, offset: 0xB8B7, size: 0x8, addend: 0x0, symName: __ZNSt3__128__exception_guard_exceptionsINS_29_AllocatorDestroyRangeReverseINS_9allocatorIhEEPhEEED2B7v160006Ev, symObjAddr: 0x13D0, symBinAddr: 0x100005348, symSize: 0x50 }
  - { offsetInCU: 0xB8E1, offset: 0xB8E1, size: 0x8, addend: 0x0, symName: __ZNKSt3__129_AllocatorDestroyRangeReverseINS_9allocatorIhEEPhEclB7v160006Ev, symObjAddr: 0x1420, symBinAddr: 0x100005398, symSize: 0x68 }
  - { offsetInCU: 0xB907, offset: 0xB907, size: 0x8, addend: 0x0, symName: __ZNSt3__116reverse_iteratorIPhEC1B7v160006ES1_, symObjAddr: 0x14F8, symBinAddr: 0x100005470, symSize: 0x34 }
  - { offsetInCU: 0xB93F, offset: 0xB93F, size: 0x8, addend: 0x0, symName: __ZNSt3__116allocator_traitsINS_9allocatorIhEEE7destroyB7v160006IhvEEvRS2_PT_, symObjAddr: 0x1574, symBinAddr: 0x1000054EC, symSize: 0x2C }
  - { offsetInCU: 0xB97C, offset: 0xB97C, size: 0x8, addend: 0x0, symName: __ZNSt3__116reverse_iteratorIPhEppB7v160006Ev, symObjAddr: 0x15C4, symBinAddr: 0x10000553C, symSize: 0x20 }
  - { offsetInCU: 0xB9A2, offset: 0xB9A2, size: 0x8, addend: 0x0, symName: __ZNKSt3__116reverse_iteratorIPhE4baseB7v160006Ev, symObjAddr: 0x15E4, symBinAddr: 0x10000555C, symSize: 0x18 }
  - { offsetInCU: 0xB9C8, offset: 0xB9C8, size: 0x8, addend: 0x0, symName: __ZNSt3__19allocatorIhE7destroyB7v160006EPh, symObjAddr: 0x15FC, symBinAddr: 0x100005574, symSize: 0x14 }
  - { offsetInCU: 0xBA01, offset: 0xBA01, size: 0x8, addend: 0x0, symName: __ZNSt3__119__to_address_helperINS_16reverse_iteratorIPhEEvE6__callB7v160006ERKS3_, symObjAddr: 0x1610, symBinAddr: 0x100005588, symSize: 0x38 }
  - { offsetInCU: 0xBA24, offset: 0xBA24, size: 0x8, addend: 0x0, symName: __ZNKSt3__116reverse_iteratorIPhEptB7v160006Ev, symObjAddr: 0x1648, symBinAddr: 0x1000055C0, symSize: 0x24 }
  - { offsetInCU: 0xBA4A, offset: 0xBA4A, size: 0x8, addend: 0x0, symName: __ZNKSt3__116reverse_iteratorIPhEdeB7v160006Ev, symObjAddr: 0x166C, symBinAddr: 0x1000055E4, symSize: 0x28 }
  - { offsetInCU: 0xBA7E, offset: 0xBA7E, size: 0x8, addend: 0x0, symName: __ZNSt3__116reverse_iteratorIPhEC2B7v160006ES1_, symObjAddr: 0x1694, symBinAddr: 0x10000560C, symSize: 0x28 }
  - { offsetInCU: 0xBAB6, offset: 0xBAB6, size: 0x8, addend: 0x0, symName: __ZNSt3__117__compressed_pairIPhNS_9allocatorIhEEE6secondB7v160006Ev, symObjAddr: 0x16BC, symBinAddr: 0x100005634, symSize: 0x24 }
  - { offsetInCU: 0xBADC, offset: 0xBADC, size: 0x8, addend: 0x0, symName: __ZNSt3__122__compressed_pair_elemINS_9allocatorIhEELi1ELb1EE5__getB7v160006Ev, symObjAddr: 0x16E0, symBinAddr: 0x100005658, symSize: 0x14 }
  - { offsetInCU: 0xBB02, offset: 0xBB02, size: 0x8, addend: 0x0, symName: __ZNSt3__16vectorIhNS_9allocatorIhEEE21_ConstructTransactionD2B7v160006Ev, symObjAddr: 0x16F4, symBinAddr: 0x10000566C, symSize: 0x20 }
  - { offsetInCU: 0xBB2C, offset: 0xBB2C, size: 0x8, addend: 0x0, symName: __ZNSt3__16vectorIhNS_9allocatorIhEEE27__invalidate_iterators_pastB7v160006EPh, symObjAddr: 0x1714, symBinAddr: 0x10000568C, symSize: 0x14 }
  - { offsetInCU: 0xBB63, offset: 0xBB63, size: 0x8, addend: 0x0, symName: __ZNSt3__16vectorIhNS_9allocatorIhEEE22__base_destruct_at_endB7v160006EPh, symObjAddr: 0x1728, symBinAddr: 0x1000056A0, symSize: 0x8C }
  - { offsetInCU: 0xBBA7, offset: 0xBBA7, size: 0x8, addend: 0x0, symName: __ZNKSt3__16vectorIhNS_9allocatorIhEEE17__annotate_shrinkB7v160006Em, symObjAddr: 0x17B4, symBinAddr: 0x10000572C, symSize: 0xB4 }
  - { offsetInCU: 0xBBDC, offset: 0xBBDC, size: 0x8, addend: 0x0, symName: __ZNKSt3__16vectorIhNS_9allocatorIhEEE31__annotate_contiguous_containerB7v160006EPKvS5_S5_S5_, symObjAddr: 0x1868, symBinAddr: 0x1000057E0, symSize: 0x20 }
  - { offsetInCU: 0xBC32, offset: 0xBC32, size: 0x8, addend: 0x0, symName: __ZNKSt3__16vectorIhNS_9allocatorIhEEE4dataB7v160006Ev, symObjAddr: 0x1888, symBinAddr: 0x100005800, symSize: 0x28 }
  - { offsetInCU: 0xBC58, offset: 0xBC58, size: 0x8, addend: 0x0, symName: __ZNSt3__16vectorIhNS_9allocatorIhEEE5clearB7v160006Ev, symObjAddr: 0x18B0, symBinAddr: 0x100005828, symSize: 0x54 }
  - { offsetInCU: 0xBC8D, offset: 0xBC8D, size: 0x8, addend: 0x0, symName: __ZNSt3__116allocator_traitsINS_9allocatorIhEEE10deallocateB7v160006ERS2_Phm, symObjAddr: 0x1904, symBinAddr: 0x10000587C, symSize: 0x34 }
  - { offsetInCU: 0xBCCF, offset: 0xBCCF, size: 0x8, addend: 0x0, symName: __ZNSt3__16vectorIhNS_9allocatorIhEEE9__end_capB7v160006Ev, symObjAddr: 0x1938, symBinAddr: 0x1000058B0, symSize: 0x28 }
  - { offsetInCU: 0xBCF5, offset: 0xBCF5, size: 0x8, addend: 0x0, symName: __ZNSt3__16vectorIhNS_9allocatorIhEEE7__clearB7v160006Ev, symObjAddr: 0x1960, symBinAddr: 0x1000058D8, symSize: 0x28 }
  - { offsetInCU: 0xBD1B, offset: 0xBD1B, size: 0x8, addend: 0x0, symName: __ZNSt3__19allocatorIhE10deallocateB7v160006EPhm, symObjAddr: 0x1988, symBinAddr: 0x100005900, symSize: 0x40 }
  - { offsetInCU: 0xBD5D, offset: 0xBD5D, size: 0x8, addend: 0x0, symName: __ZNSt3__117__compressed_pairIPhNS_9allocatorIhEEE5firstB7v160006Ev, symObjAddr: 0x1AF0, symBinAddr: 0x100005A68, symSize: 0x24 }
  - { offsetInCU: 0xBD83, offset: 0xBD83, size: 0x8, addend: 0x0, symName: __ZNSt3__122__compressed_pair_elemIPhLi0ELb0EE5__getB7v160006Ev, symObjAddr: 0x1B14, symBinAddr: 0x100005A8C, symSize: 0x14 }
  - { offsetInCU: 0xBDA9, offset: 0xBDA9, size: 0x8, addend: 0x0, symName: __ZNKSt3__16vectorIhNS_9allocatorIhEEE8max_sizeEv, symObjAddr: 0x1B28, symBinAddr: 0x100005AA0, symSize: 0x60 }
  - { offsetInCU: 0xBDD1, offset: 0xBDD1, size: 0x8, addend: 0x0, symName: __ZNKSt3__16vectorIhNS_9allocatorIhEEE20__throw_length_errorB7v160006Ev, symObjAddr: 0x1B88, symBinAddr: 0x100005B00, symSize: 0x1C }
  - { offsetInCU: 0xBDF7, offset: 0xBDF7, size: 0x8, addend: 0x0, symName: __ZNKSt3__16vectorIhNS_9allocatorIhEEE14__annotate_newB7v160006Em, symObjAddr: 0x1BE4, symBinAddr: 0x100005B5C, symSize: 0xAC }
  - { offsetInCU: 0xBE36, offset: 0xBE36, size: 0x8, addend: 0x0, symName: __ZNSt3__116allocator_traitsINS_9allocatorIhEEE8max_sizeB7v160006IS2_vEEmRKS2_, symObjAddr: 0x1CBC, symBinAddr: 0x100005C34, symSize: 0x24 }
  - { offsetInCU: 0xBE64, offset: 0xBE64, size: 0x8, addend: 0x0, symName: __ZNKSt3__16vectorIhNS_9allocatorIhEEE7__allocB7v160006Ev, symObjAddr: 0x1CE0, symBinAddr: 0x100005C58, symSize: 0x28 }
  - { offsetInCU: 0xBE8A, offset: 0xBE8A, size: 0x8, addend: 0x0, symName: __ZNSt3__114numeric_limitsIlE3maxB7v160006Ev, symObjAddr: 0x1D08, symBinAddr: 0x100005C80, symSize: 0x14 }
  - { offsetInCU: 0xBEB2, offset: 0xBEB2, size: 0x8, addend: 0x0, symName: __ZNKSt3__16__lessImmEclB7v160006ERKmS3_, symObjAddr: 0x1D70, symBinAddr: 0x100005CE8, symSize: 0x34 }
  - { offsetInCU: 0xBEF4, offset: 0xBEF4, size: 0x8, addend: 0x0, symName: __ZNKSt3__19allocatorIhE8max_sizeB7v160006Ev, symObjAddr: 0x1DA4, symBinAddr: 0x100005D1C, symSize: 0x14 }
  - { offsetInCU: 0xBF1A, offset: 0xBF1A, size: 0x8, addend: 0x0, symName: __ZNKSt3__117__compressed_pairIPhNS_9allocatorIhEEE6secondB7v160006Ev, symObjAddr: 0x1DB8, symBinAddr: 0x100005D30, symSize: 0x24 }
  - { offsetInCU: 0xBF40, offset: 0xBF40, size: 0x8, addend: 0x0, symName: __ZNKSt3__122__compressed_pair_elemINS_9allocatorIhEELi1ELb1EE5__getB7v160006Ev, symObjAddr: 0x1DDC, symBinAddr: 0x100005D54, symSize: 0x14 }
  - { offsetInCU: 0xBF66, offset: 0xBF66, size: 0x8, addend: 0x0, symName: __ZNSt3__123__libcpp_numeric_limitsIlLb1EE3maxB7v160006Ev, symObjAddr: 0x1DF0, symBinAddr: 0x100005D68, symSize: 0x8 }
  - { offsetInCU: 0xBF7A, offset: 0xBF7A, size: 0x8, addend: 0x0, symName: __ZNSt12length_errorC1B7v160006EPKc, symObjAddr: 0x1E5C, symBinAddr: 0x100005DD4, symSize: 0x34 }
  - { offsetInCU: 0xBFB2, offset: 0xBFB2, size: 0x8, addend: 0x0, symName: __ZNSt12length_errorC2B7v160006EPKc, symObjAddr: 0x1E90, symBinAddr: 0x100005E08, symSize: 0x4C }
  - { offsetInCU: 0xBFEA, offset: 0xBFEA, size: 0x8, addend: 0x0, symName: __ZNSt3__19allocatorIhE8allocateB7v160006Em, symObjAddr: 0x1EDC, symBinAddr: 0x100005E54, symSize: 0x58 }
  - { offsetInCU: 0xC01E, offset: 0xC01E, size: 0x8, addend: 0x0, symName: __ZNSt3__15arrayIjLm2048EE4dataB7v160006Ev, symObjAddr: 0x20DC, symBinAddr: 0x100006054, symSize: 0x14 }
  - { offsetInCU: 0xC044, offset: 0xC044, size: 0x8, addend: 0x0, symName: __ZNSt3__15arrayItLm16EE4dataB7v160006Ev, symObjAddr: 0x2198, symBinAddr: 0x100006110, symSize: 0x14 }
  - { offsetInCU: 0xC06A, offset: 0xC06A, size: 0x8, addend: 0x0, symName: __ZNSt3__15arrayIhLm16EE4dataB7v160006Ev, symObjAddr: 0x2254, symBinAddr: 0x1000061CC, symSize: 0x14 }
  - { offsetInCU: 0x3F, offset: 0xC16E, size: 0x8, addend: 0x0, symName: _state, symObjAddr: 0x367C8, symBinAddr: 0x100010000, symSize: 0x0 }
  - { offsetInCU: 0x4ABD, offset: 0x10BEC, size: 0x8, addend: 0x0, symName: __ZNSt3__16chronogtB7v160006IxNS_5ratioILl1ELl1000000EEExS3_EEbRKNS0_8durationIT_T0_EERKNS4_IT1_T2_EE, symObjAddr: 0x485C, symBinAddr: 0x100008D30, symSize: 0x30 }
  - { offsetInCU: 0x4B1E, offset: 0x10C4D, size: 0x8, addend: 0x0, symName: __ZNSt3__16chronoltB7v160006IxNS_5ratioILl1ELl1000000EEEeNS2_ILl1ELl1EEEEEbRKNS0_8durationIT_T0_EERKNS5_IT1_T2_EE, symObjAddr: 0x48C8, symBinAddr: 0x100008D9C, symSize: 0x34 }
  - { offsetInCU: 0x4B7F, offset: 0x10CAE, size: 0x8, addend: 0x0, symName: __ZNSt3__16chrono13duration_castB7v160006INS0_8durationIxNS_5ratioILl1ELl1000000000EEEEExNS3_ILl1ELl1000000EEEEENS_9enable_ifIXsr13__is_durationIT_EE5valueES8_E4typeERKNS2_IT0_T1_EE, symObjAddr: 0x48FC, symBinAddr: 0x100008DD0, symSize: 0x30 }
  - { offsetInCU: 0x4BC6, offset: 0x10CF5, size: 0x8, addend: 0x0, symName: __ZNSt3__16chronoltB7v160006IxNS_5ratioILl1ELl1000000000EEExNS2_ILl1ELl1000000EEEEEbRKNS0_8durationIT_T0_EERKNS5_IT1_T2_EE, symObjAddr: 0x492C, symBinAddr: 0x100008E00, symSize: 0x34 }
  - { offsetInCU: 0x4C27, offset: 0x10D56, size: 0x8, addend: 0x0, symName: __ZNSt3__16chronoltB7v160006IxNS_5ratioILl1ELl1000000EEExS3_EEbRKNS0_8durationIT_T0_EERKNS4_IT1_T2_EE, symObjAddr: 0x49BC, symBinAddr: 0x100008E90, symSize: 0x34 }
  - { offsetInCU: 0x4D05, offset: 0x10E34, size: 0x8, addend: 0x0, symName: __ZNSt3__16chrono13duration_castB7v160006INS0_8durationIeNS_5ratioILl1ELl1000000EEEEExS4_EENS_9enable_ifIXsr13__is_durationIT_EE5valueES7_E4typeERKNS2_IT0_T1_EE, symObjAddr: 0x4C10, symBinAddr: 0x1000090E4, symSize: 0x30 }
  - { offsetInCU: 0x4D97, offset: 0x10EC6, size: 0x8, addend: 0x0, symName: __ZNSt3__16chrono13duration_castB7v160006INS0_8durationIeNS_5ratioILl1ELl1000000EEEEEeNS3_ILl1ELl1EEEEENS_9enable_ifIXsr13__is_durationIT_EE5valueES8_E4typeERKNS2_IT0_T1_EE, symObjAddr: 0x4D30, symBinAddr: 0x100009204, symSize: 0x30 }
  - { offsetInCU: 0x4E89, offset: 0x10FB8, size: 0x8, addend: 0x0, symName: __ZNSt3__124__put_character_sequenceB7v160006IcNS_11char_traitsIcEEEERNS_13basic_ostreamIT_T0_EES7_PKS4_m, symObjAddr: 0x3CCC, symBinAddr: 0x1000081A0, symSize: 0x1EC }
  - { offsetInCU: 0x69E9, offset: 0x12B18, size: 0x8, addend: 0x0, symName: __ZNSt3__1lsB7v160006INS_11char_traitsIcEEEERNS_13basic_ostreamIcT_EES6_PKc, symObjAddr: 0x17A8, symBinAddr: 0x100007998, symSize: 0x48 }
  - { offsetInCU: 0x6A2F, offset: 0x12B5E, size: 0x8, addend: 0x0, symName: __ZNSt3__14endlB7v160006IcNS_11char_traitsIcEEEERNS_13basic_ostreamIT_T0_EES7_, symObjAddr: 0x181C, symBinAddr: 0x100007A0C, symSize: 0x58 }
  - { offsetInCU: 0x6A74, offset: 0x12BA3, size: 0x8, addend: 0x0, symName: __ZNSt3__111this_thread9sleep_forB7v160006IxNS_5ratioILl1ELl1000000EEEEEvRKNS_6chrono8durationIT_T0_EE, symObjAddr: 0x1E5C, symBinAddr: 0x10000804C, symSize: 0xBC }
  - { offsetInCU: 0x6AFB, offset: 0x12C2A, size: 0x8, addend: 0x0, symName: __ZNSt3__116__pad_and_outputB7v160006IcNS_11char_traitsIcEEEENS_19ostreambuf_iteratorIT_T0_EES6_PKS4_S8_S8_RNS_8ios_baseES4_, symObjAddr: 0x3F08, symBinAddr: 0x1000083DC, symSize: 0x240 }
  - { offsetInCU: 0x6BCB, offset: 0x12CFA, size: 0x8, addend: 0x0, symName: __ZNSt3__119__debug_db_insert_cB7v160006INS_12basic_stringIcNS_11char_traitsIcEENS_9allocatorIcEEEEEEvPT_, symObjAddr: 0x43BC, symBinAddr: 0x100008890, symSize: 0x10 }
  - { offsetInCU: 0x6BFC, offset: 0x12D2B, size: 0x8, addend: 0x0, symName: __ZNSt3__112__to_addressB7v160006IcEEPT_S2_, symObjAddr: 0x4488, symBinAddr: 0x10000895C, symSize: 0x14 }
  - { offsetInCU: 0x6C64, offset: 0x12D93, size: 0x8, addend: 0x0, symName: __ZNSt3__19use_facetB7v160006INS_5ctypeIcEEEERKT_RKNS_6localeE, symObjAddr: 0x4740, symBinAddr: 0x100008C14, symSize: 0x2C }
  - { offsetInCU: 0x7133, offset: 0x13262, size: 0x8, addend: 0x0, symName: __ZNSt3__118__constexpr_strlenB7v160006EPKc, symObjAddr: 0x47D8, symBinAddr: 0x100008CAC, symSize: 0x24 }
  - { offsetInCU: 0x7601, offset: 0x13730, size: 0x8, addend: 0x0, symName: _debug, symObjAddr: 0x39850, symBinAddr: 0x100013088, symSize: 0x0 }
  - { offsetInCU: 0x7643, offset: 0x13772, size: 0x8, addend: 0x0, symName: __ZL6KEYMAP, symObjAddr: 0x5356, symBinAddr: 0x10000B888, symSize: 0x0 }
  - { offsetInCU: 0x7A2E, offset: 0x13B5D, size: 0x8, addend: 0x0, symName: __ZNKSt3__16chrono13__duration_ltINS0_8durationIxNS_5ratioILl1ELl1000000EEEEENS2_IeNS3_ILl1ELl1EEEEEEclB7v160006ERKS5_RKS7_, symObjAddr: 0x4AC0, symBinAddr: 0x100008F94, symSize: 0x78 }
  - { offsetInCU: 0x7AAB, offset: 0x13BDA, size: 0x8, addend: 0x0, symName: __ZNKSt3__16chrono15__duration_castINS0_8durationIeNS_5ratioILl1ELl1EEEEENS2_IeNS3_ILl1ELl1000000EEEEENS3_ILl1000000ELl1EEELb0ELb1EEclB7v160006ERKS5_, symObjAddr: 0x4D60, symBinAddr: 0x100009234, symSize: 0x4C }
  - { offsetInCU: 0x7B17, offset: 0x13C46, size: 0x8, addend: 0x0, symName: __ZNKSt3__16chrono15__duration_castINS0_8durationIxNS_5ratioILl1ELl1000000EEEEENS2_IxNS3_ILl1ELl1000000000EEEEENS3_ILl1000ELl1EEELb0ELb1EEclB7v160006ERKS5_, symObjAddr: 0x4DC4, symBinAddr: 0x100009298, symSize: 0x48 }
  - { offsetInCU: 0x7B60, offset: 0x13C8F, size: 0x8, addend: 0x0, symName: __ZNKSt3__16chrono13__duration_ltINS0_8durationIxNS_5ratioILl1ELl1000000000EEEEENS2_IxNS3_ILl1ELl1000000EEEEEEclB7v160006ERKS5_RKS7_, symObjAddr: 0x4E70, symBinAddr: 0x100009344, symSize: 0x6C }
  - { offsetInCU: 0x99D6, offset: 0x15B05, size: 0x8, addend: 0x0, symName: __ZN10Chip8StateD1Ev, symObjAddr: 0x0, symBinAddr: 0x100006244, symSize: 0x2C }
  - { offsetInCU: 0x9A01, offset: 0x15B30, size: 0x8, addend: 0x0, symName: __Z6decodet, symObjAddr: 0x2C, symBinAddr: 0x100006270, symSize: 0x164C }
  - { offsetInCU: 0x9BB8, offset: 0x15CE7, size: 0x8, addend: 0x0, symName: __ZNSt3__15arrayItLm16EEixB7v160006Em, symObjAddr: 0x1728, symBinAddr: 0x100007938, symSize: 0x20 }
  - { offsetInCU: 0x9BEC, offset: 0x15D1B, size: 0x8, addend: 0x0, symName: __ZNSt3__15arrayIhLm16EEixB7v160006Em, symObjAddr: 0x1748, symBinAddr: 0x100007958, symSize: 0x20 }
  - { offsetInCU: 0x9C20, offset: 0x15D4F, size: 0x8, addend: 0x0, symName: __ZNSt3__15arrayIjLm2048EEixB7v160006Em, symObjAddr: 0x1788, symBinAddr: 0x100007978, symSize: 0x20 }
  - { offsetInCU: 0x9C54, offset: 0x15D83, size: 0x8, addend: 0x0, symName: __ZNSt3__113basic_ostreamIcNS_11char_traitsIcEEElsB7v160006EPFRS3_S4_E, symObjAddr: 0x17F0, symBinAddr: 0x1000079E0, symSize: 0x2C }
  - { offsetInCU: 0x9C87, offset: 0x15DB6, size: 0x8, addend: 0x0, symName: __Z5fetchv, symObjAddr: 0x1874, symBinAddr: 0x100007A64, symSize: 0xA8 }
  - { offsetInCU: 0x9CC5, offset: 0x15DF4, size: 0x8, addend: 0x0, symName: _main, symObjAddr: 0x191C, symBinAddr: 0x100007B0C, symSize: 0x4A0 }
  - { offsetInCU: 0x9D96, offset: 0x15EC5, size: 0x8, addend: 0x0, symName: __ZN10Chip8StateaSEOS_, symObjAddr: 0x1DBC, symBinAddr: 0x100007FAC, symSize: 0x6C }
  - { offsetInCU: 0x9DCC, offset: 0x15EFB, size: 0x8, addend: 0x0, symName: __ZNSt3__112basic_stringIcNS_11char_traitsIcEENS_9allocatorIcEEEC1B7v160006IDnEEPKc, symObjAddr: 0x1E28, symBinAddr: 0x100008018, symSize: 0x34 }
  - { offsetInCU: 0x9E14, offset: 0x15F43, size: 0x8, addend: 0x0, symName: __ZNSt3__16chrono8durationIxNS_5ratioILl1ELl1000000EEEEC1B7v160006IiEERKT_PNS_9enable_ifIXaasr14is_convertibleIS8_xEE5valueooL_ZNS_17integral_constantIbLb0EE5valueEEntsr23treat_as_floating_pointIS6_EE5valueEvE4typeE, symObjAddr: 0x1F18, symBinAddr: 0x100008108, symSize: 0x3C }
  - { offsetInCU: 0x9E61, offset: 0x15F90, size: 0x8, addend: 0x0, symName: __ZN10Chip8StateD2Ev, symObjAddr: 0x1F54, symBinAddr: 0x100008144, symSize: 0x34 }
  - { offsetInCU: 0x9EB5, offset: 0x15FE4, size: 0x8, addend: 0x0, symName: __ZNSt3__16chrono8durationIxNS_5ratioILl1ELl1000000EEEEC2B7v160006IiEERKT_PNS_9enable_ifIXaasr14is_convertibleIS8_xEE5valueooL_ZNS_17integral_constantIbLb0EE5valueEEntsr23treat_as_floating_pointIS6_EE5valueEvE4typeE, symObjAddr: 0x3BE8, symBinAddr: 0x100008178, symSize: 0x28 }
  - { offsetInCU: 0x9F02, offset: 0x16031, size: 0x8, addend: 0x0, symName: __ZNSt3__111char_traitsIcE6lengthEPKc, symObjAddr: 0x3EB8, symBinAddr: 0x10000838C, symSize: 0x34 }
  - { offsetInCU: 0x9F43, offset: 0x16072, size: 0x8, addend: 0x0, symName: __ZNKSt3__113basic_ostreamIcNS_11char_traitsIcEEE6sentrycvbB7v160006Ev, symObjAddr: 0x3EEC, symBinAddr: 0x1000083C0, symSize: 0x1C }
  - { offsetInCU: 0x9F69, offset: 0x16098, size: 0x8, addend: 0x0, symName: __ZNSt3__119ostreambuf_iteratorIcNS_11char_traitsIcEEEC1B7v160006ERNS_13basic_ostreamIcS2_EE, symObjAddr: 0x4148, symBinAddr: 0x10000861C, symSize: 0x34 }
  - { offsetInCU: 0x9FA1, offset: 0x160D0, size: 0x8, addend: 0x0, symName: __ZNKSt3__18ios_base5flagsB7v160006Ev, symObjAddr: 0x417C, symBinAddr: 0x100008650, symSize: 0x18 }
  - { offsetInCU: 0x9FC9, offset: 0x160F8, size: 0x8, addend: 0x0, symName: __ZNKSt3__19basic_iosIcNS_11char_traitsIcEEE4fillB7v160006Ev, symObjAddr: 0x4194, symBinAddr: 0x100008668, symSize: 0x64 }
  - { offsetInCU: 0x9FF1, offset: 0x16120, size: 0x8, addend: 0x0, symName: __ZNKSt3__119ostreambuf_iteratorIcNS_11char_traitsIcEEE6failedB7v160006Ev, symObjAddr: 0x41F8, symBinAddr: 0x1000086CC, symSize: 0x24 }
  - { offsetInCU: 0xA017, offset: 0x16146, size: 0x8, addend: 0x0, symName: __ZNSt3__19basic_iosIcNS_11char_traitsIcEEE8setstateB7v160006Ej, symObjAddr: 0x421C, symBinAddr: 0x1000086F0, symSize: 0x2C }
  - { offsetInCU: 0xA04C, offset: 0x1617B, size: 0x8, addend: 0x0, symName: __ZNKSt3__18ios_base5widthB7v160006Ev, symObjAddr: 0x4248, symBinAddr: 0x10000871C, symSize: 0x18 }
  - { offsetInCU: 0xA074, offset: 0x161A3, size: 0x8, addend: 0x0, symName: __ZNSt3__115basic_streambufIcNS_11char_traitsIcEEE5sputnB7v160006EPKcl, symObjAddr: 0x4260, symBinAddr: 0x100008734, symSize: 0x3C }
  - { offsetInCU: 0xA0B6, offset: 0x161E5, size: 0x8, addend: 0x0, symName: __ZNSt3__112basic_stringIcNS_11char_traitsIcEENS_9allocatorIcEEEC1B7v160006Emc, symObjAddr: 0x429C, symBinAddr: 0x100008770, symSize: 0x3C }
  - { offsetInCU: 0xA0FE, offset: 0x1622D, size: 0x8, addend: 0x0, symName: __ZNSt3__112basic_stringIcNS_11char_traitsIcEENS_9allocatorIcEEE4dataB7v160006Ev, symObjAddr: 0x42D8, symBinAddr: 0x1000087AC, symSize: 0x28 }
  - { offsetInCU: 0xA124, offset: 0x16253, size: 0x8, addend: 0x0, symName: __ZNSt3__18ios_base5widthB7v160006El, symObjAddr: 0x4300, symBinAddr: 0x1000087D4, symSize: 0x2C }
  - { offsetInCU: 0xA16A, offset: 0x16299, size: 0x8, addend: 0x0, symName: __ZNSt3__112basic_stringIcNS_11char_traitsIcEENS_9allocatorIcEEEC2B7v160006Emc, symObjAddr: 0x432C, symBinAddr: 0x100008800, symSize: 0x54 }
  - { offsetInCU: 0xA1B7, offset: 0x162E6, size: 0x8, addend: 0x0, symName: __ZNSt3__117__compressed_pairINS_12basic_stringIcNS_11char_traitsIcEENS_9allocatorIcEEE5__repES5_EC1B7v160006INS_18__default_init_tagESA_EEOT_OT0_, symObjAddr: 0x4380, symBinAddr: 0x100008854, symSize: 0x3C }
  - { offsetInCU: 0xA20F, offset: 0x1633E, size: 0x8, addend: 0x0, symName: __ZNSt3__117__compressed_pairINS_12basic_stringIcNS_11char_traitsIcEENS_9allocatorIcEEE5__repES5_EC2B7v160006INS_18__default_init_tagESA_EEOT_OT0_, symObjAddr: 0x43CC, symBinAddr: 0x1000088A0, symSize: 0x3C }
  - { offsetInCU: 0xA267, offset: 0x16396, size: 0x8, addend: 0x0, symName: __ZNSt3__122__compressed_pair_elemINS_12basic_stringIcNS_11char_traitsIcEENS_9allocatorIcEEE5__repELi0ELb0EEC2B7v160006ENS_18__default_init_tagE, symObjAddr: 0x4408, symBinAddr: 0x1000088DC, symSize: 0x14 }
  - { offsetInCU: 0xA29B, offset: 0x163CA, size: 0x8, addend: 0x0, symName: __ZNSt3__122__compressed_pair_elemINS_9allocatorIcEELi1ELb1EEC2B7v160006ENS_18__default_init_tagE, symObjAddr: 0x441C, symBinAddr: 0x1000088F0, symSize: 0x2C }
  - { offsetInCU: 0xA2CF, offset: 0x163FE, size: 0x8, addend: 0x0, symName: __ZNSt3__19allocatorIcEC2B7v160006Ev, symObjAddr: 0x4448, symBinAddr: 0x10000891C, symSize: 0x2C }
  - { offsetInCU: 0xA2F9, offset: 0x16428, size: 0x8, addend: 0x0, symName: __ZNSt3__116__non_trivial_ifILb1ENS_9allocatorIcEEEC2B7v160006Ev, symObjAddr: 0x4474, symBinAddr: 0x100008948, symSize: 0x14 }
  - { offsetInCU: 0xA323, offset: 0x16452, size: 0x8, addend: 0x0, symName: __ZNSt3__112basic_stringIcNS_11char_traitsIcEENS_9allocatorIcEEE13__get_pointerB7v160006Ev, symObjAddr: 0x449C, symBinAddr: 0x100008970, symSize: 0x54 }
  - { offsetInCU: 0xA349, offset: 0x16478, size: 0x8, addend: 0x0, symName: __ZNKSt3__112basic_stringIcNS_11char_traitsIcEENS_9allocatorIcEEE9__is_longB7v160006Ev, symObjAddr: 0x44F0, symBinAddr: 0x1000089C4, symSize: 0x38 }
  - { offsetInCU: 0xA36F, offset: 0x1649E, size: 0x8, addend: 0x0, symName: __ZNSt3__112basic_stringIcNS_11char_traitsIcEENS_9allocatorIcEEE18__get_long_pointerB7v160006Ev, symObjAddr: 0x4528, symBinAddr: 0x1000089FC, symSize: 0x28 }
  - { offsetInCU: 0xA395, offset: 0x164C4, size: 0x8, addend: 0x0, symName: __ZNSt3__112basic_stringIcNS_11char_traitsIcEENS_9allocatorIcEEE19__get_short_pointerB7v160006Ev, symObjAddr: 0x4550, symBinAddr: 0x100008A24, symSize: 0x28 }
  - { offsetInCU: 0xA3BB, offset: 0x164EA, size: 0x8, addend: 0x0, symName: __ZNKSt3__117__compressed_pairINS_12basic_stringIcNS_11char_traitsIcEENS_9allocatorIcEEE5__repES5_E5firstB7v160006Ev, symObjAddr: 0x4578, symBinAddr: 0x100008A4C, symSize: 0x24 }
  - { offsetInCU: 0xA3E1, offset: 0x16510, size: 0x8, addend: 0x0, symName: __ZNKSt3__122__compressed_pair_elemINS_12basic_stringIcNS_11char_traitsIcEENS_9allocatorIcEEE5__repELi0ELb0EE5__getB7v160006Ev, symObjAddr: 0x459C, symBinAddr: 0x100008A70, symSize: 0x14 }
  - { offsetInCU: 0xA407, offset: 0x16536, size: 0x8, addend: 0x0, symName: __ZNSt3__117__compressed_pairINS_12basic_stringIcNS_11char_traitsIcEENS_9allocatorIcEEE5__repES5_E5firstB7v160006Ev, symObjAddr: 0x45B0, symBinAddr: 0x100008A84, symSize: 0x24 }
  - { offsetInCU: 0xA42D, offset: 0x1655C, size: 0x8, addend: 0x0, symName: __ZNSt3__122__compressed_pair_elemINS_12basic_stringIcNS_11char_traitsIcEENS_9allocatorIcEEE5__repELi0ELb0EE5__getB7v160006Ev, symObjAddr: 0x45D4, symBinAddr: 0x100008AA8, symSize: 0x14 }
  - { offsetInCU: 0xA453, offset: 0x16582, size: 0x8, addend: 0x0, symName: __ZNSt3__114pointer_traitsIPcE10pointer_toB7v160006ERc, symObjAddr: 0x45E8, symBinAddr: 0x100008ABC, symSize: 0x14 }
  - { offsetInCU: 0xA476, offset: 0x165A5, size: 0x8, addend: 0x0, symName: __ZNSt3__119ostreambuf_iteratorIcNS_11char_traitsIcEEEC2B7v160006ERNS_13basic_ostreamIcS2_EE, symObjAddr: 0x45FC, symBinAddr: 0x100008AD0, symSize: 0x54 }
  - { offsetInCU: 0xA4AE, offset: 0x165DD, size: 0x8, addend: 0x0, symName: __ZNKSt3__19basic_iosIcNS_11char_traitsIcEEE5rdbufB7v160006Ev, symObjAddr: 0x4650, symBinAddr: 0x100008B24, symSize: 0x24 }
  - { offsetInCU: 0xA4D6, offset: 0x16605, size: 0x8, addend: 0x0, symName: __ZNKSt3__18ios_base5rdbufB7v160006Ev, symObjAddr: 0x4674, symBinAddr: 0x100008B48, symSize: 0x18 }
  - { offsetInCU: 0xA4FC, offset: 0x1662B, size: 0x8, addend: 0x0, symName: __ZNSt3__111char_traitsIcE11eq_int_typeEii, symObjAddr: 0x468C, symBinAddr: 0x100008B60, symSize: 0x28 }
  - { offsetInCU: 0xA52D, offset: 0x1665C, size: 0x8, addend: 0x0, symName: __ZNSt3__111char_traitsIcE3eofEv, symObjAddr: 0x46B4, symBinAddr: 0x100008B88, symSize: 0x8 }
  - { offsetInCU: 0xA541, offset: 0x16670, size: 0x8, addend: 0x0, symName: __ZNKSt3__19basic_iosIcNS_11char_traitsIcEEE5widenB7v160006Ec, symObjAddr: 0x46BC, symBinAddr: 0x100008B90, symSize: 0x84 }
  - { offsetInCU: 0xA5AF, offset: 0x166DE, size: 0x8, addend: 0x0, symName: __ZNKSt3__15ctypeIcE5widenB7v160006Ec, symObjAddr: 0x476C, symBinAddr: 0x100008C40, symSize: 0x38 }
  - { offsetInCU: 0xA5E4, offset: 0x16713, size: 0x8, addend: 0x0, symName: __ZNSt3__18ios_base8setstateB7v160006Ej, symObjAddr: 0x47A4, symBinAddr: 0x100008C78, symSize: 0x34 }
  - { offsetInCU: 0xA61B, offset: 0x1674A, size: 0x8, addend: 0x0, symName: __ZNSt3__112basic_stringIcNS_11char_traitsIcEENS_9allocatorIcEEEC2B7v160006IDnEEPKc, symObjAddr: 0x47FC, symBinAddr: 0x100008CD0, symSize: 0x60 }
  - { offsetInCU: 0xA659, offset: 0x16788, size: 0x8, addend: 0x0, symName: __ZNSt3__16chrono8durationIxNS_5ratioILl1ELl1000000EEEE4zeroB7v160006Ev, symObjAddr: 0x488C, symBinAddr: 0x100008D60, symSize: 0x3C }
  - { offsetInCU: 0xA66D, offset: 0x1679C, size: 0x8, addend: 0x0, symName: __ZNSt3__16chrono8durationIxNS_5ratioILl1ELl1000000000EEEEppB7v160006Ev, symObjAddr: 0x4960, symBinAddr: 0x100008E34, symSize: 0x20 }
  - { offsetInCU: 0xA693, offset: 0x167C2, size: 0x8, addend: 0x0, symName: __ZNSt3__16chrono8durationIxNS_5ratioILl1ELl1000000000EEEE3maxB7v160006Ev, symObjAddr: 0x4980, symBinAddr: 0x100008E54, symSize: 0x3C }
  - { offsetInCU: 0xA6B1, offset: 0x167E0, size: 0x8, addend: 0x0, symName: __ZNKSt3__16chrono13__duration_ltINS0_8durationIxNS_5ratioILl1ELl1000000EEEEES5_EclB7v160006ERKS5_S8_, symObjAddr: 0x49F0, symBinAddr: 0x100008EC4, symSize: 0x4C }
  - { offsetInCU: 0xA6F5, offset: 0x16824, size: 0x8, addend: 0x0, symName: __ZNKSt3__16chrono8durationIxNS_5ratioILl1ELl1000000EEEE5countB7v160006Ev, symObjAddr: 0x4A3C, symBinAddr: 0x100008F10, symSize: 0x18 }
  - { offsetInCU: 0xA71B, offset: 0x1684A, size: 0x8, addend: 0x0, symName: __ZNSt3__16chrono15duration_valuesIxE4zeroB7v160006Ev, symObjAddr: 0x4A54, symBinAddr: 0x100008F28, symSize: 0x8 }
  - { offsetInCU: 0xA739, offset: 0x16868, size: 0x8, addend: 0x0, symName: __ZNSt3__16chrono8durationIxNS_5ratioILl1ELl1000000EEEEC1B7v160006IxEERKT_PNS_9enable_ifIXaasr14is_convertibleIS8_xEE5valueooL_ZNS_17integral_constantIbLb0EE5valueEEntsr23treat_as_floating_pointIS6_EE5valueEvE4typeE, symObjAddr: 0x4A5C, symBinAddr: 0x100008F30, symSize: 0x3C }
  - { offsetInCU: 0xA786, offset: 0x168B5, size: 0x8, addend: 0x0, symName: __ZNSt3__16chrono8durationIxNS_5ratioILl1ELl1000000EEEEC2B7v160006IxEERKT_PNS_9enable_ifIXaasr14is_convertibleIS8_xEE5valueooL_ZNS_17integral_constantIbLb0EE5valueEEntsr23treat_as_floating_pointIS6_EE5valueEvE4typeE, symObjAddr: 0x4A98, symBinAddr: 0x100008F6C, symSize: 0x28 }
  - { offsetInCU: 0xA7D3, offset: 0x16902, size: 0x8, addend: 0x0, symName: __ZNSt3__16chrono8durationIeNS_5ratioILl1ELl1000000EEEEC1B7v160006IxS3_EERKNS1_IT_T0_EEPNS_9enable_ifIXaasr13__no_overflowIS7_S3_EE5valueooL_ZNS_17integral_constantIbLb1EE5valueEEaaeqsr13__no_overflowIS7_S3_E4typeE3denLi1Entsr23treat_as_floating_pointIS6_EE5valueEvE4typeE, symObjAddr: 0x4B38, symBinAddr: 0x10000900C, symSize: 0x3C }
  - { offsetInCU: 0xA82A, offset: 0x16959, size: 0x8, addend: 0x0, symName: __ZNKSt3__16chrono8durationIeNS_5ratioILl1ELl1000000EEEE5countB7v160006Ev, symObjAddr: 0x4B74, symBinAddr: 0x100009048, symSize: 0x18 }
  - { offsetInCU: 0xA850, offset: 0x1697F, size: 0x8, addend: 0x0, symName: __ZNSt3__16chrono8durationIeNS_5ratioILl1ELl1000000EEEEC1B7v160006IeNS2_ILl1ELl1EEEEERKNS1_IT_T0_EEPNS_9enable_ifIXaasr13__no_overflowIS8_S3_EE5valueooL_ZNS_17integral_constantIbLb1EE5valueEEaaeqsr13__no_overflowIS8_S3_E4typeE3denLi1Entsr23treat_as_floating_pointIS7_EE5valueEvE4typeE, symObjAddr: 0x4B8C, symBinAddr: 0x100009060, symSize: 0x3C }
  - { offsetInCU: 0xA8A7, offset: 0x169D6, size: 0x8, addend: 0x0, symName: __ZNSt3__16chrono8durationIeNS_5ratioILl1ELl1000000EEEEC2B7v160006IxS3_EERKNS1_IT_T0_EEPNS_9enable_ifIXaasr13__no_overflowIS7_S3_EE5valueooL_ZNS_17integral_constantIbLb1EE5valueEEaaeqsr13__no_overflowIS7_S3_E4typeE3denLi1Entsr23treat_as_floating_pointIS6_EE5valueEvE4typeE, symObjAddr: 0x4BC8, symBinAddr: 0x10000909C, symSize: 0x48 }
  - { offsetInCU: 0xA908, offset: 0x16A37, size: 0x8, addend: 0x0, symName: __ZNKSt3__16chrono15__duration_castINS0_8durationIxNS_5ratioILl1ELl1000000EEEEENS2_IeS4_EENS3_ILl1ELl1EEELb1ELb1EEclB7v160006ERKS5_, symObjAddr: 0x4C40, symBinAddr: 0x100009114, symSize: 0x44 }
  - { offsetInCU: 0xA946, offset: 0x16A75, size: 0x8, addend: 0x0, symName: __ZNSt3__16chrono8durationIeNS_5ratioILl1ELl1000000EEEEC1B7v160006IeEERKT_PNS_9enable_ifIXaasr14is_convertibleIS8_eEE5valueooL_ZNS_17integral_constantIbLb1EE5valueEEntsr23treat_as_floating_pointIS6_EE5valueEvE4typeE, symObjAddr: 0x4C84, symBinAddr: 0x100009158, symSize: 0x3C }
  - { offsetInCU: 0xA993, offset: 0x16AC2, size: 0x8, addend: 0x0, symName: __ZNSt3__16chrono8durationIeNS_5ratioILl1ELl1000000EEEEC2B7v160006IeEERKT_PNS_9enable_ifIXaasr14is_convertibleIS8_eEE5valueooL_ZNS_17integral_constantIbLb1EE5valueEEntsr23treat_as_floating_pointIS6_EE5valueEvE4typeE, symObjAddr: 0x4CC0, symBinAddr: 0x100009194, symSize: 0x28 }
  - { offsetInCU: 0xA9E0, offset: 0x16B0F, size: 0x8, addend: 0x0, symName: __ZNSt3__16chrono8durationIeNS_5ratioILl1ELl1000000EEEEC2B7v160006IeNS2_ILl1ELl1EEEEERKNS1_IT_T0_EEPNS_9enable_ifIXaasr13__no_overflowIS8_S3_EE5valueooL_ZNS_17integral_constantIbLb1EE5valueEEaaeqsr13__no_overflowIS8_S3_E4typeE3denLi1Entsr23treat_as_floating_pointIS7_EE5valueEvE4typeE, symObjAddr: 0x4CE8, symBinAddr: 0x1000091BC, symSize: 0x48 }
  - { offsetInCU: 0xAA37, offset: 0x16B66, size: 0x8, addend: 0x0, symName: __ZNKSt3__16chrono8durationIeNS_5ratioILl1ELl1EEEE5countB7v160006Ev, symObjAddr: 0x4DAC, symBinAddr: 0x100009280, symSize: 0x18 }
  - { offsetInCU: 0xAA5D, offset: 0x16B8C, size: 0x8, addend: 0x0, symName: __ZNSt3__16chrono8durationIxNS_5ratioILl1ELl1000000000EEEEC1B7v160006IxEERKT_PNS_9enable_ifIXaasr14is_convertibleIS8_xEE5valueooL_ZNS_17integral_constantIbLb0EE5valueEEntsr23treat_as_floating_pointIS6_EE5valueEvE4typeE, symObjAddr: 0x4E0C, symBinAddr: 0x1000092E0, symSize: 0x3C }
  - { offsetInCU: 0xAAAA, offset: 0x16BD9, size: 0x8, addend: 0x0, symName: __ZNSt3__16chrono8durationIxNS_5ratioILl1ELl1000000000EEEEC2B7v160006IxEERKT_PNS_9enable_ifIXaasr14is_convertibleIS8_xEE5valueooL_ZNS_17integral_constantIbLb0EE5valueEEntsr23treat_as_floating_pointIS6_EE5valueEvE4typeE, symObjAddr: 0x4E48, symBinAddr: 0x10000931C, symSize: 0x28 }
  - { offsetInCU: 0xAAF7, offset: 0x16C26, size: 0x8, addend: 0x0, symName: __ZNKSt3__16chrono8durationIxNS_5ratioILl1ELl1000000000EEEE5countB7v160006Ev, symObjAddr: 0x4EDC, symBinAddr: 0x1000093B0, symSize: 0x18 }
  - { offsetInCU: 0xAB1D, offset: 0x16C4C, size: 0x8, addend: 0x0, symName: __ZNSt3__16chrono8durationIxNS_5ratioILl1ELl1000000000EEEEC1B7v160006IxNS2_ILl1ELl1000000EEEEERKNS1_IT_T0_EEPNS_9enable_ifIXaasr13__no_overflowIS8_S3_EE5valueooL_ZNS_17integral_constantIbLb0EE5valueEEaaeqsr13__no_overflowIS8_S3_E4typeE3denLi1Entsr23treat_as_floating_pointIS7_EE5valueEvE4typeE, symObjAddr: 0x4EF4, symBinAddr: 0x1000093C8, symSize: 0x3C }
  - { offsetInCU: 0xAB74, offset: 0x16CA3, size: 0x8, addend: 0x0, symName: __ZNSt3__16chrono8durationIxNS_5ratioILl1ELl1000000000EEEEC2B7v160006IxNS2_ILl1ELl1000000EEEEERKNS1_IT_T0_EEPNS_9enable_ifIXaasr13__no_overflowIS8_S3_EE5valueooL_ZNS_17integral_constantIbLb0EE5valueEEaaeqsr13__no_overflowIS8_S3_E4typeE3denLi1Entsr23treat_as_floating_pointIS7_EE5valueEvE4typeE, symObjAddr: 0x4F30, symBinAddr: 0x100009404, symSize: 0x50 }
  - { offsetInCU: 0xABCB, offset: 0x16CFA, size: 0x8, addend: 0x0, symName: __ZNSt3__16chrono15duration_valuesIxE3maxB7v160006Ev, symObjAddr: 0x4F80, symBinAddr: 0x100009454, symSize: 0x14 }
  - { offsetInCU: 0xABDF, offset: 0x16D0E, size: 0x8, addend: 0x0, symName: __ZNSt3__114numeric_limitsIxE3maxB7v160006Ev, symObjAddr: 0x4F94, symBinAddr: 0x100009468, symSize: 0x14 }
  - { offsetInCU: 0xABF3, offset: 0x16D22, size: 0x8, addend: 0x0, symName: __ZNSt3__123__libcpp_numeric_limitsIxLb1EE3maxB7v160006Ev, symObjAddr: 0x4FA8, symBinAddr: 0x10000947C, symSize: 0x8 }
  - { offsetInCU: 0x40ED, offset: 0x1BE3F, size: 0x8, addend: 0x0, symName: __ZNSt3__112__to_addressB7v160006IKcEEPT_S3_, symObjAddr: 0x570, symBinAddr: 0x100009950, symSize: 0x14 }
  - { offsetInCU: 0x6296, offset: 0x1DFE8, size: 0x8, addend: 0x0, symName: __ZN7DisplayC2ENSt3__112basic_stringIcNS0_11char_traitsIcEENS0_9allocatorIcEEEE, symObjAddr: 0x0, symBinAddr: 0x1000094D8, symSize: 0x1F0 }
  - { offsetInCU: 0x6317, offset: 0x1E069, size: 0x8, addend: 0x0, symName: __ZNKSt3__112basic_stringIcNS_11char_traitsIcEENS_9allocatorIcEEE5c_strB7v160006Ev, symObjAddr: 0x1F0, symBinAddr: 0x1000096C8, symSize: 0x24 }
  - { offsetInCU: 0x633D, offset: 0x1E08F, size: 0x8, addend: 0x0, symName: __ZN7DisplayC1ENSt3__112basic_stringIcNS0_11char_traitsIcEENS0_9allocatorIcEEEE, symObjAddr: 0x2E0, symBinAddr: 0x1000096EC, symSize: 0x34 }
  - { offsetInCU: 0x6378, offset: 0x1E0CA, size: 0x8, addend: 0x0, symName: __ZN7DisplayD2Ev, symObjAddr: 0x314, symBinAddr: 0x100009720, symSize: 0xE8 }
  - { offsetInCU: 0x63A4, offset: 0x1E0F6, size: 0x8, addend: 0x0, symName: __ZN7DisplayD1Ev, symObjAddr: 0x408, symBinAddr: 0x100009808, symSize: 0x2C }
  - { offsetInCU: 0x63D0, offset: 0x1E122, size: 0x8, addend: 0x0, symName: __ZN7Display6renderENSt3__15arrayIjLm2048EEE, symObjAddr: 0x434, symBinAddr: 0x100009834, symSize: 0xF4 }
  - { offsetInCU: 0x644F, offset: 0x1E1A1, size: 0x8, addend: 0x0, symName: __ZNKSt3__112basic_stringIcNS_11char_traitsIcEENS_9allocatorIcEEE4dataB7v160006Ev, symObjAddr: 0x548, symBinAddr: 0x100009928, symSize: 0x28 }
  - { offsetInCU: 0x6475, offset: 0x1E1C7, size: 0x8, addend: 0x0, symName: __ZNKSt3__112basic_stringIcNS_11char_traitsIcEENS_9allocatorIcEEE13__get_pointerB7v160006Ev, symObjAddr: 0x584, symBinAddr: 0x100009964, symSize: 0x54 }
  - { offsetInCU: 0x649B, offset: 0x1E1ED, size: 0x8, addend: 0x0, symName: __ZNKSt3__112basic_stringIcNS_11char_traitsIcEENS_9allocatorIcEEE18__get_long_pointerB7v160006Ev, symObjAddr: 0x610, symBinAddr: 0x1000099B8, symSize: 0x28 }
  - { offsetInCU: 0x64C1, offset: 0x1E213, size: 0x8, addend: 0x0, symName: __ZNKSt3__112basic_stringIcNS_11char_traitsIcEENS_9allocatorIcEEE19__get_short_pointerB7v160006Ev, symObjAddr: 0x638, symBinAddr: 0x1000099E0, symSize: 0x28 }
  - { offsetInCU: 0x64E7, offset: 0x1E239, size: 0x8, addend: 0x0, symName: __ZNSt3__114pointer_traitsIPKcE10pointer_toB7v160006ERS1_, symObjAddr: 0x698, symBinAddr: 0x100009A08, symSize: 0x14 }
  - { offsetInCU: 0x73CE, offset: 0x2569F, size: 0x8, addend: 0x0, symName: __Z8load_romiPPc, symObjAddr: 0x0, symBinAddr: 0x100009A1C, symSize: 0x280 }
  - { offsetInCU: 0x1BFC, offset: 0x27672, size: 0x8, addend: 0x0, symName: __ZNSt3__119__debug_db_insert_cB7v160006INS_6vectorIhNS_9allocatorIhEEEEEEvPT_, symObjAddr: 0x784, symBinAddr: 0x10000A358, symSize: 0x10 }
  - { offsetInCU: 0x1C2D, offset: 0x276A3, size: 0x8, addend: 0x0, symName: __ZNSt3__118__debug_db_erase_cB7v160006INS_6vectorIhNS_9allocatorIhEEEEEEvPT_, symObjAddr: 0xA48, symBinAddr: 0x10000A61C, symSize: 0x10 }
  - { offsetInCU: 0x1CE0, offset: 0x27756, size: 0x8, addend: 0x0, symName: __ZNSt3__122__make_exception_guardB7v160006INS_6vectorIhNS_9allocatorIhEEE16__destroy_vectorEEENS_28__exception_guard_exceptionsIT_EES7_, symObjAddr: 0x27A8, symBinAddr: 0x10000A730, symSize: 0x40 }
  - { offsetInCU: 0x1D15, offset: 0x2778B, size: 0x8, addend: 0x0, symName: __ZNSt3__18distanceB7v160006IPKhEENS_15iterator_traitsIT_E15difference_typeES4_S4_, symObjAddr: 0x27E8, symBinAddr: 0x10000A770, symSize: 0x2C }
  - { offsetInCU: 0x1D58, offset: 0x277CE, size: 0x8, addend: 0x0, symName: __ZNSt3__110__distanceB7v160006IPKhEENS_15iterator_traitsIT_E15difference_typeES4_S4_NS_26random_access_iterator_tagE, symObjAddr: 0x2940, symBinAddr: 0x10000A8C8, symSize: 0x20 }
  - { offsetInCU: 0x1DA5, offset: 0x2781B, size: 0x8, addend: 0x0, symName: __ZNSt3__130__uninitialized_allocator_copyB7v160006INS_9allocatorIhEEhhLPv0EEEPT0_RT_PKS4_S9_S5_, symObjAddr: 0x2960, symBinAddr: 0x10000A8E8, symSize: 0x38 }
  - { offsetInCU: 0x1E1E, offset: 0x27894, size: 0x8, addend: 0x0, symName: __ZNSt3__14copyB7v160006IPKhPhEET0_T_S5_S4_, symObjAddr: 0x2998, symBinAddr: 0x10000A920, symSize: 0x40 }
  - { offsetInCU: 0x1E78, offset: 0x278EE, size: 0x8, addend: 0x0, symName: __ZNSt3__16__copyB7v160006INS_17_ClassicAlgPolicyEPKhS3_PhEENS_4pairIT0_T2_EES6_T1_S7_, symObjAddr: 0x29D8, symBinAddr: 0x10000A960, symSize: 0x44 }
  - { offsetInCU: 0x1EE4, offset: 0x2795A, size: 0x8, addend: 0x0, symName: __ZNSt3__123__dispatch_copy_or_moveB7v160006INS_17_ClassicAlgPolicyENS_11__copy_loopIS1_EENS_14__copy_trivialEPKhS6_PhEENS_4pairIT2_T4_EES9_T3_SA_, symObjAddr: 0x2A1C, symBinAddr: 0x10000A9A4, symSize: 0x44 }
  - { offsetInCU: 0x1F62, offset: 0x279D8, size: 0x8, addend: 0x0, symName: __ZNSt3__121__unwrap_and_dispatchB7v160006INS_10__overloadINS_11__copy_loopINS_17_ClassicAlgPolicyEEENS_14__copy_trivialEEEPKhS8_PhLi0EEENS_4pairIT0_T2_EESB_T1_SC_, symObjAddr: 0x2A60, symBinAddr: 0x10000A9E8, symSize: 0xB4 }
  - { offsetInCU: 0x1FF0, offset: 0x27A66, size: 0x8, addend: 0x0, symName: __ZNSt3__114__unwrap_rangeB7v160006IPKhS2_EENS_4pairIT0_S4_EET_S6_, symObjAddr: 0x2B14, symBinAddr: 0x10000AA9C, symSize: 0x60 }
  - { offsetInCU: 0x213F, offset: 0x27BB5, size: 0x8, addend: 0x0, symName: __ZNSt3__19make_pairB7v160006IPKhPhEENS_4pairINS_18__unwrap_ref_decayIT_E4typeENS5_IT0_E4typeEEEOS6_OS9_, symObjAddr: 0x2BBC, symBinAddr: 0x10000AB44, symSize: 0x38 }
  - { offsetInCU: 0x218E, offset: 0x27C04, size: 0x8, addend: 0x0, symName: __ZNSt3__114__rewrap_rangeB7v160006IPKhS2_EET_S3_T0_, symObjAddr: 0x2BF4, symBinAddr: 0x10000AB7C, symSize: 0x2C }
  - { offsetInCU: 0x21DA, offset: 0x27C50, size: 0x8, addend: 0x0, symName: __ZNSt3__19make_pairB7v160006IPKhS2_EENS_4pairINS_18__unwrap_ref_decayIT_E4typeENS4_IT0_E4typeEEEOS5_OS8_, symObjAddr: 0x2C20, symBinAddr: 0x10000ABA8, symSize: 0x38 }
  - { offsetInCU: 0x2229, offset: 0x27C9F, size: 0x8, addend: 0x0, symName: __ZNSt3__113__unwrap_iterB7v160006IPKhNS_18__unwrap_iter_implIS2_Lb1EEELi0EEEDTclsrT0_8__unwrapclsr3stdE7declvalIT_EEEES6_, symObjAddr: 0x2C58, symBinAddr: 0x10000ABE0, symSize: 0x24 }
  - { offsetInCU: 0x2394, offset: 0x27E0A, size: 0x8, addend: 0x0, symName: __ZNSt3__112__to_addressB7v160006IKhEEPT_S3_, symObjAddr: 0x2D10, symBinAddr: 0x10000AC98, symSize: 0x14 }
  - { offsetInCU: 0x23C9, offset: 0x27E3F, size: 0x8, addend: 0x0, symName: __ZNSt3__119__copy_trivial_implB7v160006IKhhEENS_4pairIPT_PT0_EES4_S4_S6_, symObjAddr: 0x2D24, symBinAddr: 0x10000ACAC, symSize: 0x7C }
  - { offsetInCU: 0x2431, offset: 0x27EA7, size: 0x8, addend: 0x0, symName: __ZNSt3__19make_pairB7v160006IRPKhPhEENS_4pairINS_18__unwrap_ref_decayIT_E4typeENS6_IT0_E4typeEEEOS7_OSA_, symObjAddr: 0x2DA0, symBinAddr: 0x10000AD28, symSize: 0x38 }
  - { offsetInCU: 0x2480, offset: 0x27EF6, size: 0x8, addend: 0x0, symName: __ZNSt3__113__rewrap_iterB7v160006IPKhS2_NS_18__unwrap_iter_implIS2_Lb1EEEEET_S5_T0_, symObjAddr: 0x2EB8, symBinAddr: 0x10000AE40, symSize: 0x3C }
  - { offsetInCU: 0x24D5, offset: 0x27F4B, size: 0x8, addend: 0x0, symName: __ZNSt3__115__debug_db_swapB7v160006INS_6vectorIhNS_9allocatorIhEEEEEEvPT_S6_, symObjAddr: 0x3064, symBinAddr: 0x10000AFEC, symSize: 0x14 }
  - { offsetInCU: 0x4529, offset: 0x29F9F, size: 0x8, addend: 0x0, symName: __ZN5InputC2Ev, symObjAddr: 0x0, symBinAddr: 0x100009C9C, symSize: 0xA8 }
  - { offsetInCU: 0x4555, offset: 0x29FCB, size: 0x8, addend: 0x0, symName: __ZNSt3__16vectorIhNS_9allocatorIhEEEC1B7v160006Ev, symObjAddr: 0xA8, symBinAddr: 0x100009D44, symSize: 0x2C }
  - { offsetInCU: 0x457F, offset: 0x29FF5, size: 0x8, addend: 0x0, symName: __ZN5Input12get_keyboardEv, symObjAddr: 0x108, symBinAddr: 0x100009D70, symSize: 0x60 }
  - { offsetInCU: 0x45B5, offset: 0x2A02B, size: 0x8, addend: 0x0, symName: __ZNSt3__16vectorIhNS_9allocatorIhEEED1B7v160006Ev, symObjAddr: 0x1D0, symBinAddr: 0x100009DD0, symSize: 0x2C }
  - { offsetInCU: 0x45DF, offset: 0x2A055, size: 0x8, addend: 0x0, symName: __ZN5InputC1Ev, symObjAddr: 0x1FC, symBinAddr: 0x100009DFC, symSize: 0x2C }
  - { offsetInCU: 0x460B, offset: 0x2A081, size: 0x8, addend: 0x0, symName: __ZN5InputD2Ev, symObjAddr: 0x228, symBinAddr: 0x100009E28, symSize: 0x3C }
  - { offsetInCU: 0x4637, offset: 0x2A0AD, size: 0x8, addend: 0x0, symName: __ZN5InputD1Ev, symObjAddr: 0x264, symBinAddr: 0x100009E64, symSize: 0x2C }
  - { offsetInCU: 0x4663, offset: 0x2A0D9, size: 0x8, addend: 0x0, symName: __ZN5Input6updateEv, symObjAddr: 0x290, symBinAddr: 0x100009E90, symSize: 0x3C }
  - { offsetInCU: 0x468B, offset: 0x2A101, size: 0x8, addend: 0x0, symName: __ZNSt3__16vectorIhNS_9allocatorIhEEEC1IPKhLi0EEET_S7_, symObjAddr: 0x2CC, symBinAddr: 0x100009ECC, symSize: 0x3C }
  - { offsetInCU: 0x46E4, offset: 0x2A15A, size: 0x8, addend: 0x0, symName: __ZNSt3__16vectorIhNS_9allocatorIhEEEaSB7v160006EOS3_, symObjAddr: 0x308, symBinAddr: 0x100009F08, symSize: 0x34 }
  - { offsetInCU: 0x471B, offset: 0x2A191, size: 0x8, addend: 0x0, symName: __ZN5Input7get_keyE12SDL_Scancode, symObjAddr: 0x33C, symBinAddr: 0x100009F3C, symSize: 0x84 }
  - { offsetInCU: 0x4751, offset: 0x2A1C7, size: 0x8, addend: 0x0, symName: __ZNSt3__16vectorIhNS_9allocatorIhEEEixB7v160006Em, symObjAddr: 0x3C0, symBinAddr: 0x100009FC0, symSize: 0x24 }
  - { offsetInCU: 0x4788, offset: 0x2A1FE, size: 0x8, addend: 0x0, symName: __ZN5Input12handle_inputEv, symObjAddr: 0x3E4, symBinAddr: 0x100009FE4, symSize: 0x2E0 }
  - { offsetInCU: 0x47B0, offset: 0x2A226, size: 0x8, addend: 0x0, symName: __ZNSt3__16vectorIhNS_9allocatorIhEEEC2B7v160006Ev, symObjAddr: 0x6E4, symBinAddr: 0x10000A2C4, symSize: 0x58 }
  - { offsetInCU: 0x47E4, offset: 0x2A25A, size: 0x8, addend: 0x0, symName: __ZNSt3__117__compressed_pairIPhNS_9allocatorIhEEEC1B7v160006IDnNS_18__default_init_tagEEEOT_OT0_, symObjAddr: 0x73C, symBinAddr: 0x10000A31C, symSize: 0x3C }
  - { offsetInCU: 0x483C, offset: 0x2A2B2, size: 0x8, addend: 0x0, symName: __ZNSt3__117__compressed_pairIPhNS_9allocatorIhEEEC2B7v160006IDnNS_18__default_init_tagEEEOT_OT0_, symObjAddr: 0x794, symBinAddr: 0x10000A368, symSize: 0x40 }
  - { offsetInCU: 0x4894, offset: 0x2A30A, size: 0x8, addend: 0x0, symName: __ZNSt3__122__compressed_pair_elemIPhLi0ELb0EEC2B7v160006IDnvEEOT_, symObjAddr: 0x7D4, symBinAddr: 0x10000A3A8, symSize: 0x1C }
  - { offsetInCU: 0x48D6, offset: 0x2A34C, size: 0x8, addend: 0x0, symName: __ZNSt3__122__compressed_pair_elemINS_9allocatorIhEELi1ELb1EEC2B7v160006ENS_18__default_init_tagE, symObjAddr: 0x7F0, symBinAddr: 0x10000A3C4, symSize: 0x2C }
  - { offsetInCU: 0x490A, offset: 0x2A380, size: 0x8, addend: 0x0, symName: __ZNSt3__19allocatorIhEC2B7v160006Ev, symObjAddr: 0x81C, symBinAddr: 0x10000A3F0, symSize: 0x2C }
  - { offsetInCU: 0x4934, offset: 0x2A3AA, size: 0x8, addend: 0x0, symName: __ZNSt3__116__non_trivial_ifILb1ENS_9allocatorIhEEEC2B7v160006Ev, symObjAddr: 0x848, symBinAddr: 0x10000A41C, symSize: 0x14 }
  - { offsetInCU: 0x495E, offset: 0x2A3D4, size: 0x8, addend: 0x0, symName: __ZNSt3__16vectorIhNS_9allocatorIhEEED2B7v160006Ev, symObjAddr: 0x85C, symBinAddr: 0x10000A430, symSize: 0x44 }
  - { offsetInCU: 0x4988, offset: 0x2A3FE, size: 0x8, addend: 0x0, symName: __ZNSt3__16vectorIhNS_9allocatorIhEEE16__destroy_vectorC1ERS3_, symObjAddr: 0x8A0, symBinAddr: 0x10000A474, symSize: 0x34 }
  - { offsetInCU: 0x49C1, offset: 0x2A437, size: 0x8, addend: 0x0, symName: __ZNSt3__16vectorIhNS_9allocatorIhEEE16__destroy_vectorclB7v160006Ev, symObjAddr: 0x8D4, symBinAddr: 0x10000A4A8, symSize: 0x9C }
  - { offsetInCU: 0x49E7, offset: 0x2A45D, size: 0x8, addend: 0x0, symName: __ZNSt3__16vectorIhNS_9allocatorIhEEE16__destroy_vectorC2ERS3_, symObjAddr: 0x970, symBinAddr: 0x10000A544, symSize: 0x20 }
  - { offsetInCU: 0x4A20, offset: 0x2A496, size: 0x8, addend: 0x0, symName: __ZNKSt3__16vectorIhNS_9allocatorIhEEE17__annotate_deleteB7v160006Ev, symObjAddr: 0x990, symBinAddr: 0x10000A564, symSize: 0xB8 }
  - { offsetInCU: 0x4A6E, offset: 0x2A4E4, size: 0x8, addend: 0x0, symName: __ZNSt3__16vectorIhNS_9allocatorIhEEEC2IPKhLi0EEET_S7_, symObjAddr: 0x26A4, symBinAddr: 0x10000A62C, symSize: 0x104 }
  - { offsetInCU: 0x4AED, offset: 0x2A563, size: 0x8, addend: 0x0, symName: __ZNSt3__16vectorIhNS_9allocatorIhEEE18__construct_at_endIPKhLi0EEEvT_S7_m, symObjAddr: 0x2814, symBinAddr: 0x10000A79C, symSize: 0x8C }
  - { offsetInCU: 0x4B60, offset: 0x2A5D6, size: 0x8, addend: 0x0, symName: __ZNSt3__128__exception_guard_exceptionsINS_6vectorIhNS_9allocatorIhEEE16__destroy_vectorEE10__completeB7v160006Ev, symObjAddr: 0x28A0, symBinAddr: 0x10000A828, symSize: 0x1C }
  - { offsetInCU: 0x4B86, offset: 0x2A5FC, size: 0x8, addend: 0x0, symName: __ZNSt3__128__exception_guard_exceptionsINS_6vectorIhNS_9allocatorIhEEE16__destroy_vectorEED1B7v160006Ev, symObjAddr: 0x28BC, symBinAddr: 0x10000A844, symSize: 0x2C }
  - { offsetInCU: 0x4BB0, offset: 0x2A626, size: 0x8, addend: 0x0, symName: __ZNSt3__128__exception_guard_exceptionsINS_6vectorIhNS_9allocatorIhEEE16__destroy_vectorEEC1B7v160006ES5_, symObjAddr: 0x28E8, symBinAddr: 0x10000A870, symSize: 0x34 }
  - { offsetInCU: 0x4BE8, offset: 0x2A65E, size: 0x8, addend: 0x0, symName: __ZNSt3__128__exception_guard_exceptionsINS_6vectorIhNS_9allocatorIhEEE16__destroy_vectorEEC2B7v160006ES5_, symObjAddr: 0x291C, symBinAddr: 0x10000A8A4, symSize: 0x24 }
  - { offsetInCU: 0x4C39, offset: 0x2A6AF, size: 0x8, addend: 0x0, symName: __ZNKSt3__114__copy_trivialclB7v160006IKhhLi0EEENS_4pairIPT_PT0_EES5_S5_S7_, symObjAddr: 0x2B74, symBinAddr: 0x10000AAFC, symSize: 0x48 }
  - { offsetInCU: 0x4CBF, offset: 0x2A735, size: 0x8, addend: 0x0, symName: __ZNSt3__14pairIPKhS2_EC1B7v160006IS2_S2_LPv0EEEOT_OT0_, symObjAddr: 0x2C7C, symBinAddr: 0x10000AC04, symSize: 0x3C }
  - { offsetInCU: 0x4D1D, offset: 0x2A793, size: 0x8, addend: 0x0, symName: __ZNSt3__14pairIPKhS2_EC2B7v160006IS2_S2_LPv0EEEOT_OT0_, symObjAddr: 0x2CB8, symBinAddr: 0x10000AC40, symSize: 0x34 }
  - { offsetInCU: 0x4D7B, offset: 0x2A7F1, size: 0x8, addend: 0x0, symName: __ZNSt3__118__unwrap_iter_implIPKhLb1EE8__unwrapB7v160006ES2_, symObjAddr: 0x2CEC, symBinAddr: 0x10000AC74, symSize: 0x24 }
  - { offsetInCU: 0x4DA3, offset: 0x2A819, size: 0x8, addend: 0x0, symName: __ZNSt3__14pairIPKhPhEC1B7v160006IRS2_S3_LPv0EEEOT_OT0_, symObjAddr: 0x2DD8, symBinAddr: 0x10000AD60, symSize: 0x3C }
  - { offsetInCU: 0x4E01, offset: 0x2A877, size: 0x8, addend: 0x0, symName: __ZNSt3__14pairIPKhPhEC2B7v160006IRS2_S3_LPv0EEEOT_OT0_, symObjAddr: 0x2E14, symBinAddr: 0x10000AD9C, symSize: 0x34 }
  - { offsetInCU: 0x4E5F, offset: 0x2A8D5, size: 0x8, addend: 0x0, symName: __ZNSt3__14pairIPKhPhEC1B7v160006IS2_S3_LPv0EEEOT_OT0_, symObjAddr: 0x2E48, symBinAddr: 0x10000ADD0, symSize: 0x3C }
  - { offsetInCU: 0x4EBD, offset: 0x2A933, size: 0x8, addend: 0x0, symName: __ZNSt3__14pairIPKhPhEC2B7v160006IS2_S3_LPv0EEEOT_OT0_, symObjAddr: 0x2E84, symBinAddr: 0x10000AE0C, symSize: 0x34 }
  - { offsetInCU: 0x4F1B, offset: 0x2A991, size: 0x8, addend: 0x0, symName: __ZNSt3__118__unwrap_iter_implIPKhLb1EE8__rewrapB7v160006ES2_S2_, symObjAddr: 0x2EF4, symBinAddr: 0x10000AE7C, symSize: 0x48 }
  - { offsetInCU: 0x4F4C, offset: 0x2A9C2, size: 0x8, addend: 0x0, symName: __ZNSt3__128__exception_guard_exceptionsINS_6vectorIhNS_9allocatorIhEEE16__destroy_vectorEED2B7v160006Ev, symObjAddr: 0x2F3C, symBinAddr: 0x10000AEC4, symSize: 0x50 }
  - { offsetInCU: 0x4F76, offset: 0x2A9EC, size: 0x8, addend: 0x0, symName: __ZNSt3__16vectorIhNS_9allocatorIhEEE13__move_assignERS3_NS_17integral_constantIbLb1EEE, symObjAddr: 0x2F8C, symBinAddr: 0x10000AF14, symSize: 0xAC }
  - { offsetInCU: 0x4FB9, offset: 0x2AA2F, size: 0x8, addend: 0x0, symName: __ZNSt3__16vectorIhNS_9allocatorIhEEE19__move_assign_allocB7v160006ERS3_, symObjAddr: 0x3038, symBinAddr: 0x10000AFC0, symSize: 0x2C }
  - { offsetInCU: 0x4FEE, offset: 0x2AA64, size: 0x8, addend: 0x0, symName: __ZNSt3__16vectorIhNS_9allocatorIhEEE19__move_assign_allocB7v160006ERS3_NS_17integral_constantIbLb1EEE, symObjAddr: 0x3078, symBinAddr: 0x10000B000, symSize: 0x38 }
...
